Archive member included because of file (symbol)

pluto/plutolib.a(pluto.o)     build\gcc\obj/pluto/pluto_entry.o (pluto_pre_init)
pluto/plutolib.a(pluto_common.o)
                              build\gcc\obj/App/Pluto-Switch3-V1.0/app_task.o (pluto_get_seq)
pluto/plutolib.a(aps_common.o)
                              build\gcc\obj/App/Pluto-Switch3-V1.0/app_task.o (aps_set_listener)
pluto/plutolib.a(aps_output.o)
                              build\gcc\obj/App/Pluto-Switch3-V1.0/app_task.o (aps_req_send_command)
pluto/plutolib.a(aps_user.o)  pluto/plutolib.a(aps_output.o) (aps_start_fetch_user)
pluto/plutolib.a(lcl_output.o)
                              pluto/plutolib.a(aps_output.o) (lcl_req_Send_data)
pluto/plutolib.a(login.o)     pluto/plutolib.a(pluto.o) (login_set_user_psw)
pluto/plutolib.a(nwk_common.o)
                              build\gcc\obj/pluto/pluto_entry.o (socket_init)
pluto/plutolib.a(nwk_nib.o)   pluto/plutolib.a(login.o) (nwk_set_server_online_flag)
pluto/plutolib.a(nwk_output.o)
                              pluto/plutolib.a(lcl_output.o) (nwk_req_send_data)
pluto/plutolib.a(nwk_pre_input.o)
                              pluto/plutolib.a(nwk_common.o) (nwk_pre_input)
pluto/plutolib.a(nwk_route.o)
                              pluto/plutolib.a(nwk_output.o) (nwk_pakage_limit_get)
pluto/plutolib.a(osCore.o)    pluto/plutolib.a(pluto.o) (osInit)
pluto/plutolib.a(osLibc.o)    build\gcc\obj/App/Pluto-Switch3-V1.0/hal_MT.o (osMemcpy)
pluto/plutolib.a(osTimer.o)   build\gcc\obj/pluto/spiffs/w25qxx.o (osGetmsTimestamp)
pluto/plutolib.a(osTrace.o)   build\gcc\obj/App/Pluto-Switch3-V1.0/main.o (os_dbg_init)
pluto/plutolib.a(printf.o)    build\gcc\obj/pluto/json/cJSON.o (sprintf_)
pluto/plutolib.a(pdo_describe.o)
                              build\gcc\obj/App/Pluto-Switch3-V1.0/app_task.o (pdo_register_port)
pluto/plutolib.a(pdo_keys.o)  pluto/plutolib.a(lcl_output.o) (pdo_get_devcie_key)
pluto/plutolib.a(pdo_nib.o)   pluto/plutolib.a(pdo_describe.o) (pdo_set_version)
pluto/plutolib.a(pdo_record.o)
                              pluto/plutolib.a(aps_output.o) (pdo_save_alarm_record)
pluto/plutolib.a(pdo_scene.o)
                              pluto/plutolib.a(pluto.o) (pdo_scene_init)
pluto/plutolib.a(pdo_server.o)
                              pluto/plutolib.a(pluto.o) (pdo_load_server_info)
pluto/plutolib.a(pdo_update.o)
                              pluto/plutolib.a(pdo_describe.o) (pdo_set_bin_name)
pluto/plutolib.a(scene.o)     pluto/plutolib.a(pdo_scene.o) (Scene_CreateTask)
pluto/plutolib.a(scene_core.o)
                              pluto/plutolib.a(scene.o) (Scene_GetTaskBlock)
pluto/plutolib.a(scene_do.o)  pluto/plutolib.a(scene_core.o) (Scene_Send)
pluto/plutolib.a(scene_lib.o)
                              pluto/plutolib.a(scene_core.o) (Scene_ISNUM)
pluto/plutolib.a(scene_message.o)
                              pluto/plutolib.a(aps_output.o) (Scene_InputDevMsg)
pluto/plutolib.a(scene_reason.o)
                              pluto/plutolib.a(scene_core.o) (Scene_CheckReasons)
pluto/plutolib.a(aID.o)       pluto/plutolib.a(scene_do.o) (pluto_get_data_type)
pluto/plutolib.a(aps_input.o)
                              pluto/plutolib.a(lcl_output.o) (aps_send_status_cb)
pluto/plutolib.a(lcl_common.o)
                              pluto/plutolib.a(lcl_output.o) (lcl_expand_data_length)
pluto/plutolib.a(lcl_crypto.o)
                              pluto/plutolib.a(lcl_output.o) (lcl_encrypt_data)
pluto/plutolib.a(nwk_input.o)
                              pluto/plutolib.a(nwk_output.o) (nwk_input)
pluto/plutolib.a(pdo.o)       pluto/plutolib.a(aps_input.o) (pdo_command_handle)
pluto/plutolib.a(pdo_file_system.o)
                              pluto/plutolib.a(pdo_scene.o) (pdo_get_file_name)
pluto/plutolib.a(pdo_utb.o)   pluto/plutolib.a(aps_input.o) (utb_check_enable_port)
pluto/plutolib.a(lcl_aes.o)   pluto/plutolib.a(lcl_crypto.o) (AES_init_ctx_iv)
pluto/plutolib.a(lcl_input.o)
                              pluto/plutolib.a(nwk_input.o) (lcl_input_message)
libs/gcc/app_start.lib(gpio.o)
                              build\gcc\obj/App/Pluto-Switch3-V1.0/hal_i2c.o (Ql_GPIO_Init)
libs/gcc/app_start.lib(memory.o)
                              build\gcc\obj/ril/src/ril_lwm2m.o (Ql_MEM_Alloc)
libs/gcc/app_start.lib(ql_func.o)
                              libs/gcc/app_start.lib(memory.o) (api_notsup)
libs/gcc/app_start.lib(ql_main.o)
                              build\gcc\obj/ril/src/ril_atResponse.o (Ql_sscanf)
libs/gcc/app_start.lib(ril_aux.o)
                              build\gcc\obj/App/Pluto-Switch3-V1.0/config/sys_config.o (proc_reserved2)
libs/gcc/app_start.lib(ril_main.o)
                              build\gcc\obj/App/Pluto-Switch3-V1.0/main.o (Ql_RIL_Initialize)
libs/gcc/app_start.lib(spi.o)
                              build\gcc\obj/pluto/spiffs/hal_spi.o (Ql_SPI_Init)
libs/gcc/app_start.lib(stdlib_func.o)
                              build\gcc\obj/pluto/spiffs/spiffs_hydrogen.o (Ql_strcpy)
libs/gcc/app_start.lib(system.o)
                              build\gcc\obj/App/Pluto-Switch3-V1.0/Hal_HTU.o (Ql_Sleep)
libs/gcc/app_start.lib(taskMngt.o)
                              libs/gcc/app_start.lib(ril_aux.o) (Ql_OS_GetMessage)
libs/gcc/app_start.lib(timer.o)
                              libs/gcc/app_start.lib(ril_main.o) (Ql_Timer_Register)
libs/gcc/app_start.lib(uart.o)
                              build\gcc\obj/App/Pluto-Switch3-V1.0/hal_uart.o (Ql_UART_Register)
libs/gcc/app_start.lib(ocpu_init.o)
                              libs/gcc/app_start.lib(ql_main.o) (_OCPU_InitUserMem)
tools\gcc\win\gcc-arm-none-eabi/arm-none-eabi/lib/armv7e-m/fpu/libc.a(lib_a-atoi.o)
                              build\gcc\obj/ril/src/ril_system.o (atoi)
tools\gcc\win\gcc-arm-none-eabi/arm-none-eabi/lib/armv7e-m/fpu/libc.a(lib_a-memcpy.o)
                              build\gcc\obj/ril/src/ril_system.o (memcpy)
tools\gcc\win\gcc-arm-none-eabi/arm-none-eabi/lib/armv7e-m/fpu/libc.a(lib_a-memset.o)
                              build\gcc\obj/pluto/spiffs/w25qxx.o (memset)
tools\gcc\win\gcc-arm-none-eabi/arm-none-eabi/lib/armv7e-m/fpu/libc.a(lib_a-strchr.o)
                              build\gcc\obj/ril/src/ril_system.o (strchr)
tools\gcc\win\gcc-arm-none-eabi/arm-none-eabi/lib/armv7e-m/fpu/libc.a(lib_a-strcpy.o)
                              build\gcc\obj/ril/src/ril_system.o (strcpy)
tools\gcc\win\gcc-arm-none-eabi/arm-none-eabi/lib/armv7e-m/fpu/libc.a(lib_a-strlen.o)
                              build\gcc\obj/ril/src/ril_system.o (strlen)
tools\gcc\win\gcc-arm-none-eabi/arm-none-eabi/lib/armv7e-m/fpu/libc.a(lib_a-strncpy.o)
                              build\gcc\obj/ril/src/ril_system.o (strncpy)
tools\gcc\win\gcc-arm-none-eabi/arm-none-eabi/lib/armv7e-m/fpu/libc.a(lib_a-strsep.o)
                              build\gcc\obj/ril/src/ril_system.o (strsep)
tools\gcc\win\gcc-arm-none-eabi/arm-none-eabi/lib/armv7e-m/fpu/libc.a(lib_a-strtok.o)
                              build\gcc\obj/ril/src/ril_system.o (strtok)
tools\gcc\win\gcc-arm-none-eabi/arm-none-eabi/lib/armv7e-m/fpu/libc.a(lib_a-strtok_r.o)
                              tools\gcc\win\gcc-arm-none-eabi/arm-none-eabi/lib/armv7e-m/fpu/libc.a(lib_a-strsep.o) (__strtok_r)
tools\gcc\win\gcc-arm-none-eabi/arm-none-eabi/lib/armv7e-m/fpu/libc.a(lib_a-strtol.o)
                              tools\gcc\win\gcc-arm-none-eabi/arm-none-eabi/lib/armv7e-m/fpu/libc.a(lib_a-atoi.o) (_strtol_r)
tools\gcc\win\gcc-arm-none-eabi/arm-none-eabi/lib/armv7e-m/fpu/libc.a(lib_a-ctype_.o)
                              tools\gcc\win\gcc-arm-none-eabi/arm-none-eabi/lib/armv7e-m/fpu/libc.a(lib_a-strtol.o) (__ctype_ptr__)
tools\gcc\win\gcc-arm-none-eabi/arm-none-eabi/lib/armv7e-m/fpu/libc.a(lib_a-impure.o)
                              tools\gcc\win\gcc-arm-none-eabi/arm-none-eabi/lib/armv7e-m/fpu/libc.a(lib_a-strtok.o) (_impure_ptr)
tools\gcc\win\gcc-arm-none-eabi/lib/gcc/arm-none-eabi/4.8.3/armv7e-m/fpu/libgcc.a(_arm_addsubdf3.o)
                              pluto/plutolib.a(printf.o) (__aeabi_dsub)
tools\gcc\win\gcc-arm-none-eabi/lib/gcc/arm-none-eabi/4.8.3/armv7e-m/fpu/libgcc.a(_arm_muldivdf3.o)
                              pluto/plutolib.a(printf.o) (__aeabi_dmul)
tools\gcc\win\gcc-arm-none-eabi/lib/gcc/arm-none-eabi/4.8.3/armv7e-m/fpu/libgcc.a(_arm_cmpdf2.o)
                              pluto/plutolib.a(printf.o) (__aeabi_dcmpeq)
tools\gcc\win\gcc-arm-none-eabi/lib/gcc/arm-none-eabi/4.8.3/armv7e-m/fpu/libgcc.a(_arm_fixdfsi.o)
                              pluto/plutolib.a(printf.o) (__aeabi_d2iz)
tools\gcc\win\gcc-arm-none-eabi/lib/gcc/arm-none-eabi/4.8.3/armv7e-m/fpu/libgcc.a(_arm_fixunsdfsi.o)
                              pluto/plutolib.a(printf.o) (__aeabi_d2uiz)
tools\gcc\win\gcc-arm-none-eabi/lib/gcc/arm-none-eabi/4.8.3/armv7e-m/fpu/libgcc.a(_aeabi_uldivmod.o)
                              pluto/plutolib.a(printf.o) (__aeabi_uldivmod)
tools\gcc\win\gcc-arm-none-eabi/lib/gcc/arm-none-eabi/4.8.3/armv7e-m/fpu/libgcc.a(bpabi.o)
                              tools\gcc\win\gcc-arm-none-eabi/lib/gcc/arm-none-eabi/4.8.3/armv7e-m/fpu/libgcc.a(_aeabi_uldivmod.o) (__gnu_uldivmod_helper)
tools\gcc\win\gcc-arm-none-eabi/lib/gcc/arm-none-eabi/4.8.3/armv7e-m/fpu/libgcc.a(_dvmd_tls.o)
                              tools\gcc\win\gcc-arm-none-eabi/lib/gcc/arm-none-eabi/4.8.3/armv7e-m/fpu/libgcc.a(_aeabi_uldivmod.o) (__aeabi_ldiv0)
tools\gcc\win\gcc-arm-none-eabi/lib/gcc/arm-none-eabi/4.8.3/armv7e-m/fpu/libgcc.a(_divdi3.o)
                              tools\gcc\win\gcc-arm-none-eabi/lib/gcc/arm-none-eabi/4.8.3/armv7e-m/fpu/libgcc.a(bpabi.o) (__divdi3)
tools\gcc\win\gcc-arm-none-eabi/lib/gcc/arm-none-eabi/4.8.3/armv7e-m/fpu/libgcc.a(_udivdi3.o)
                              tools\gcc\win\gcc-arm-none-eabi/lib/gcc/arm-none-eabi/4.8.3/armv7e-m/fpu/libgcc.a(bpabi.o) (__udivdi3)

Discarded input sections

 .text          0x00000000        0x0 build\gcc\obj/App/Pluto-Switch3-V1.0/config/custom_sys_cfg.o
 .data          0x00000000        0x0 build\gcc\obj/App/Pluto-Switch3-V1.0/config/custom_sys_cfg.o
 .bss           0x00000000        0x0 build\gcc\obj/App/Pluto-Switch3-V1.0/config/custom_sys_cfg.o
 .text          0x00000000        0x0 build\gcc\obj/App/Pluto-Switch3-V1.0/config/sys_config.o
 .data          0x00000000        0x0 build\gcc\obj/App/Pluto-Switch3-V1.0/config/sys_config.o
 .bss           0x00000000        0x0 build\gcc\obj/App/Pluto-Switch3-V1.0/config/sys_config.o
 .text          0x00000000        0x0 build\gcc\obj/ril/src/ril_atResponse.o
 .data          0x00000000        0x0 build\gcc\obj/ril/src/ril_atResponse.o
 .bss           0x00000000        0x0 build\gcc\obj/ril/src/ril_atResponse.o
 .text.Ql_RIL_AT_GetErrCode
                0x00000000        0xc build\gcc\obj/ril/src/ril_atResponse.o
 .text          0x00000000        0x0 build\gcc\obj/ril/src/ril_dfota.o
 .data          0x00000000        0x0 build\gcc\obj/ril/src/ril_dfota.o
 .bss           0x00000000        0x0 build\gcc\obj/ril/src/ril_dfota.o
 .text.RIL_DFOTA_Upgrade
                0x00000000       0x48 build\gcc\obj/ril/src/ril_dfota.o
 .text          0x00000000        0x0 build\gcc\obj/ril/src/ril_init.o
 .data          0x00000000        0x0 build\gcc\obj/ril/src/ril_init.o
 .bss           0x00000000        0x0 build\gcc\obj/ril/src/ril_init.o
 .text          0x00000000        0x0 build\gcc\obj/ril/src/ril_lwm2m.o
 .data          0x00000000        0x0 build\gcc\obj/ril/src/ril_lwm2m.o
 .bss           0x00000000        0x0 build\gcc\obj/ril/src/ril_lwm2m.o
 .text.ATResponse_Recv_Handler
                0x00000000      0x134 build\gcc\obj/ril/src/ril_lwm2m.o
 .text.ATResponse_Handler
                0x00000000       0x5c build\gcc\obj/ril/src/ril_lwm2m.o
 .text.ATResponse_Update_Handler
                0x00000000       0x6c build\gcc\obj/ril/src/ril_lwm2m.o
 .text.ATResponse_Send_Handler
                0x00000000       0x6c build\gcc\obj/ril/src/ril_lwm2m.o
 .text.ATResponse_Close_Handler
                0x00000000       0x6c build\gcc\obj/ril/src/ril_lwm2m.o
 .text.ATResponse_Delete_Handler
                0x00000000       0x5c build\gcc\obj/ril/src/ril_lwm2m.o
 .text.RIL_QLwM2M_Serv
                0x00000000       0x50 build\gcc\obj/ril/src/ril_lwm2m.o
 .text.RIL_QLwM2M_Conf
                0x00000000       0x4c build\gcc\obj/ril/src/ril_lwm2m.o
 .text.RIL_QLwM2M_Addobj
                0x00000000       0x6c build\gcc\obj/ril/src/ril_lwm2m.o
 .text.RIL_QLwM2M_Delobj
                0x00000000       0x4c build\gcc\obj/ril/src/ril_lwm2m.o
 .text.RIL_QLwM2M_Open
                0x00000000       0x4c build\gcc\obj/ril/src/ril_lwm2m.o
 .text.RIL_QLwM2M_Update
                0x00000000       0x48 build\gcc\obj/ril/src/ril_lwm2m.o
 .text.RIL_QLwM2M_Cfg
                0x00000000       0x5c build\gcc\obj/ril/src/ril_lwm2m.o
 .text.RIL_QLwM2M_Send
                0x00000000       0xd4 build\gcc\obj/ril/src/ril_lwm2m.o
 .text.RIL_QLwM2M_RD
                0x00000000       0xd8 build\gcc\obj/ril/src/ril_lwm2m.o
 .text.RIL_QLwM2M_Close
                0x00000000       0x48 build\gcc\obj/ril/src/ril_lwm2m.o
 .text.RIL_QLwM2M_Delete
                0x00000000       0x48 build\gcc\obj/ril/src/ril_lwm2m.o
 .bss.lwm2m_rd_temp_param
                0x00000000        0x8 build\gcc\obj/ril/src/ril_lwm2m.o
 .rodata.str1.1
                0x00000000      0x161 build\gcc\obj/ril/src/ril_lwm2m.o
 .text          0x00000000        0x0 build\gcc\obj/ril/src/ril_network.o
 .data          0x00000000        0x0 build\gcc\obj/ril/src/ril_network.o
 .bss           0x00000000        0x0 build\gcc\obj/ril/src/ril_network.o
 .text          0x00000000        0x0 build\gcc\obj/ril/src/ril_onenet.o
 .data          0x00000000        0x0 build\gcc\obj/ril/src/ril_onenet.o
 .bss           0x00000000        0x0 build\gcc\obj/ril/src/ril_onenet.o
 .text.ATResponse_Read_Handler
                0x00000000      0x12c build\gcc\obj/ril/src/ril_onenet.o
 .text.ATResponse_Create_Handler
                0x00000000       0xb0 build\gcc\obj/ril/src/ril_onenet.o
 .text.ATResponse_Handler
                0x00000000       0x6c build\gcc\obj/ril/src/ril_onenet.o
 .text.RIL_QONENET_Create
                0x00000000       0x58 build\gcc\obj/ril/src/ril_onenet.o
 .text.RIL_QONENET_Addobj
                0x00000000       0x60 build\gcc\obj/ril/src/ril_onenet.o
 .text.RIL_QONENET_Delobj
                0x00000000       0x50 build\gcc\obj/ril/src/ril_onenet.o
 .text.RIL_QONENET_Open
                0x00000000       0x50 build\gcc\obj/ril/src/ril_onenet.o
 .text.RIL_QONENET_Observer_Rsp
                0x00000000       0x54 build\gcc\obj/ril/src/ril_onenet.o
 .text.RIL_QONENET_Discover_Rsp
                0x00000000       0x5c build\gcc\obj/ril/src/ril_onenet.o
 .text.RIL_QONENET_Config
                0x00000000       0x78 build\gcc\obj/ril/src/ril_onenet.o
 .text.RIL_QONENET_Notify
                0x00000000       0xd4 build\gcc\obj/ril/src/ril_onenet.o
 .text.RIL_QONENET_Update
                0x00000000       0x54 build\gcc\obj/ril/src/ril_onenet.o
 .text.RIL_QONENET_Write_Rsp
                0x00000000       0x68 build\gcc\obj/ril/src/ril_onenet.o
 .text.RIL_QONENET_Read_Rsp
                0x00000000       0x98 build\gcc\obj/ril/src/ril_onenet.o
 .text.RIL_QONENET_Execute_Rsp
                0x00000000       0x54 build\gcc\obj/ril/src/ril_onenet.o
 .text.RIL_QONENET_RD
                0x00000000       0xc4 build\gcc\obj/ril/src/ril_onenet.o
 .text.RIL_QONENET_CLOSE
                0x00000000       0x4c build\gcc\obj/ril/src/ril_onenet.o
 .text.RIL_QONENET_DELETE
                0x00000000       0x4c build\gcc\obj/ril/src/ril_onenet.o
 .bss.onenet_rd_temp_param
                0x00000000        0x8 build\gcc\obj/ril/src/ril_onenet.o
 .rodata.str1.1
                0x00000000      0x22c build\gcc\obj/ril/src/ril_onenet.o
 .bss.g_ONENET_RD_DATA_MODE
                0x00000000        0x1 build\gcc\obj/ril/src/ril_onenet.o
 .text          0x00000000        0x0 build\gcc\obj/ril/src/ril_socket.o
 .data          0x00000000        0x0 build\gcc\obj/ril/src/ril_socket.o
 .bss           0x00000000        0x0 build\gcc\obj/ril/src/ril_socket.o
 .text.RIL_SOC_QISEND
                0x00000000       0x74 build\gcc\obj/ril/src/ril_socket.o
 .text.RIL_SOC_QISWTMD
                0x00000000       0x50 build\gcc\obj/ril/src/ril_socket.o
 .text          0x00000000        0x0 build\gcc\obj/ril/src/ril_system.o
 .data          0x00000000        0x0 build\gcc\obj/ril/src/ril_system.o
 .bss           0x00000000        0x0 build\gcc\obj/ril/src/ril_system.o
 .text.ATRsp_IMEI_Handler
                0x00000000       0x88 build\gcc\obj/ril/src/ril_system.o
 .text.RIL_GetIMEI
                0x00000000       0x4c build\gcc\obj/ril/src/ril_system.o
 .text.RIL_QNbiotEvent_Enable
                0x00000000       0x54 build\gcc\obj/ril/src/ril_system.o
 .text.RIL_QNbiotEvent_Disable
                0x00000000       0x54 build\gcc\obj/ril/src/ril_system.o
 .text.open_socket_push_param_parse_cmd
                0x00000000      0x130 build\gcc\obj/ril/src/ril_system.o
 .text.Qstr_seacher_with
                0x00000000       0x58 build\gcc\obj/ril/src/ril_system.o
 .text.open_param_parse_cmd
                0x00000000       0xd4 build\gcc\obj/ril/src/ril_system.o
 .text          0x00000000        0x0 build\gcc\obj/ril/src/ril_urc.o
 .data          0x00000000        0x0 build\gcc\obj/ril/src/ril_urc.o
 .bss           0x00000000        0x0 build\gcc\obj/ril/src/ril_urc.o
 .text          0x00000000        0x0 build\gcc\obj/ril/src/ril_util.o
 .data          0x00000000        0x0 build\gcc\obj/ril/src/ril_util.o
 .bss           0x00000000        0x0 build\gcc\obj/ril/src/ril_util.o
 .text.Ql_HexStrToInt
                0x00000000       0x4c build\gcc\obj/ril/src/ril_util.o
 .text.Ql_GenHash
                0x00000000       0x28 build\gcc\obj/ril/src/ril_util.o
 .text          0x00000000        0x0 build\gcc\obj/example/example_adc.o
 .data          0x00000000        0x0 build\gcc\obj/example/example_adc.o
 .bss           0x00000000        0x0 build\gcc\obj/example/example_adc.o
 .debug_line    0x00000000        0x0 build\gcc\obj/example/example_adc.o
 .debug_str     0x00000000        0x0 build\gcc\obj/example/example_adc.o
 .comment       0x00000000       0x71 build\gcc\obj/example/example_adc.o
 .ARM.attributes
                0x00000000       0x39 build\gcc\obj/example/example_adc.o
 .text          0x00000000        0x0 build\gcc\obj/example/example_dfota_http.o
 .data          0x00000000        0x0 build\gcc\obj/example/example_dfota_http.o
 .bss           0x00000000        0x0 build\gcc\obj/example/example_dfota_http.o
 .debug_line    0x00000000        0x0 build\gcc\obj/example/example_dfota_http.o
 .debug_str     0x00000000        0x0 build\gcc\obj/example/example_dfota_http.o
 .comment       0x00000000       0x71 build\gcc\obj/example/example_dfota_http.o
 .ARM.attributes
                0x00000000       0x39 build\gcc\obj/example/example_dfota_http.o
 .text          0x00000000        0x0 build\gcc\obj/example/example_eint.o
 .data          0x00000000        0x0 build\gcc\obj/example/example_eint.o
 .bss           0x00000000        0x0 build\gcc\obj/example/example_eint.o
 .debug_line    0x00000000        0x0 build\gcc\obj/example/example_eint.o
 .debug_str     0x00000000        0x0 build\gcc\obj/example/example_eint.o
 .comment       0x00000000       0x71 build\gcc\obj/example/example_eint.o
 .ARM.attributes
                0x00000000       0x39 build\gcc\obj/example/example_eint.o
 .text          0x00000000        0x0 build\gcc\obj/example/example_float_math.o
 .data          0x00000000        0x0 build\gcc\obj/example/example_float_math.o
 .bss           0x00000000        0x0 build\gcc\obj/example/example_float_math.o
 .debug_line    0x00000000        0x0 build\gcc\obj/example/example_float_math.o
 .debug_str     0x00000000        0x0 build\gcc\obj/example/example_float_math.o
 .comment       0x00000000       0x71 build\gcc\obj/example/example_float_math.o
 .ARM.attributes
                0x00000000       0x39 build\gcc\obj/example/example_float_math.o
 .text          0x00000000        0x0 build\gcc\obj/example/example_gpio.o
 .data          0x00000000        0x0 build\gcc\obj/example/example_gpio.o
 .bss           0x00000000        0x0 build\gcc\obj/example/example_gpio.o
 .debug_line    0x00000000        0x0 build\gcc\obj/example/example_gpio.o
 .debug_str     0x00000000        0x0 build\gcc\obj/example/example_gpio.o
 .comment       0x00000000       0x71 build\gcc\obj/example/example_gpio.o
 .ARM.attributes
                0x00000000       0x39 build\gcc\obj/example/example_gpio.o
 .text          0x00000000        0x0 build\gcc\obj/example/example_iic.o
 .data          0x00000000        0x0 build\gcc\obj/example/example_iic.o
 .bss           0x00000000        0x0 build\gcc\obj/example/example_iic.o
 .debug_line    0x00000000        0x0 build\gcc\obj/example/example_iic.o
 .debug_str     0x00000000        0x0 build\gcc\obj/example/example_iic.o
 .comment       0x00000000       0x71 build\gcc\obj/example/example_iic.o
 .ARM.attributes
                0x00000000       0x39 build\gcc\obj/example/example_iic.o
 .text          0x00000000        0x0 build\gcc\obj/example/example_lwm2m.o
 .data          0x00000000        0x0 build\gcc\obj/example/example_lwm2m.o
 .bss           0x00000000        0x0 build\gcc\obj/example/example_lwm2m.o
 .debug_line    0x00000000        0x0 build\gcc\obj/example/example_lwm2m.o
 .debug_str     0x00000000        0x0 build\gcc\obj/example/example_lwm2m.o
 .comment       0x00000000       0x71 build\gcc\obj/example/example_lwm2m.o
 .ARM.attributes
                0x00000000       0x39 build\gcc\obj/example/example_lwm2m.o
 .text          0x00000000        0x0 build\gcc\obj/example/example_memory.o
 .data          0x00000000        0x0 build\gcc\obj/example/example_memory.o
 .bss           0x00000000        0x0 build\gcc\obj/example/example_memory.o
 .debug_line    0x00000000        0x0 build\gcc\obj/example/example_memory.o
 .debug_str     0x00000000        0x0 build\gcc\obj/example/example_memory.o
 .comment       0x00000000       0x71 build\gcc\obj/example/example_memory.o
 .ARM.attributes
                0x00000000       0x39 build\gcc\obj/example/example_memory.o
 .text          0x00000000        0x0 build\gcc\obj/example/example_multitask.o
 .data          0x00000000        0x0 build\gcc\obj/example/example_multitask.o
 .bss           0x00000000        0x0 build\gcc\obj/example/example_multitask.o
 .debug_line    0x00000000        0x0 build\gcc\obj/example/example_multitask.o
 .debug_str     0x00000000        0x0 build\gcc\obj/example/example_multitask.o
 .comment       0x00000000       0x71 build\gcc\obj/example/example_multitask.o
 .ARM.attributes
                0x00000000       0x39 build\gcc\obj/example/example_multitask.o
 .text          0x00000000        0x0 build\gcc\obj/example/example_onenet.o
 .data          0x00000000        0x0 build\gcc\obj/example/example_onenet.o
 .bss           0x00000000        0x0 build\gcc\obj/example/example_onenet.o
 .debug_line    0x00000000        0x0 build\gcc\obj/example/example_onenet.o
 .debug_str     0x00000000        0x0 build\gcc\obj/example/example_onenet.o
 .comment       0x00000000       0x71 build\gcc\obj/example/example_onenet.o
 .ARM.attributes
                0x00000000       0x39 build\gcc\obj/example/example_onenet.o
 .text          0x00000000        0x0 build\gcc\obj/example/example_pwm.o
 .data          0x00000000        0x0 build\gcc\obj/example/example_pwm.o
 .bss           0x00000000        0x0 build\gcc\obj/example/example_pwm.o
 .debug_line    0x00000000        0x0 build\gcc\obj/example/example_pwm.o
 .debug_str     0x00000000        0x0 build\gcc\obj/example/example_pwm.o
 .comment       0x00000000       0x71 build\gcc\obj/example/example_pwm.o
 .ARM.attributes
                0x00000000       0x39 build\gcc\obj/example/example_pwm.o
 .text          0x00000000        0x0 build\gcc\obj/example/example_rtc.o
 .data          0x00000000        0x0 build\gcc\obj/example/example_rtc.o
 .bss           0x00000000        0x0 build\gcc\obj/example/example_rtc.o
 .debug_line    0x00000000        0x0 build\gcc\obj/example/example_rtc.o
 .debug_str     0x00000000        0x0 build\gcc\obj/example/example_rtc.o
 .comment       0x00000000       0x71 build\gcc\obj/example/example_rtc.o
 .ARM.attributes
                0x00000000       0x39 build\gcc\obj/example/example_rtc.o
 .text          0x00000000        0x0 build\gcc\obj/example/example_spi.o
 .data          0x00000000        0x0 build\gcc\obj/example/example_spi.o
 .bss           0x00000000        0x0 build\gcc\obj/example/example_spi.o
 .debug_line    0x00000000        0x0 build\gcc\obj/example/example_spi.o
 .debug_str     0x00000000        0x0 build\gcc\obj/example/example_spi.o
 .comment       0x00000000       0x71 build\gcc\obj/example/example_spi.o
 .ARM.attributes
                0x00000000       0x39 build\gcc\obj/example/example_spi.o
 .text          0x00000000        0x0 build\gcc\obj/example/example_system.o
 .data          0x00000000        0x0 build\gcc\obj/example/example_system.o
 .bss           0x00000000        0x0 build\gcc\obj/example/example_system.o
 .debug_line    0x00000000        0x0 build\gcc\obj/example/example_system.o
 .debug_str     0x00000000        0x0 build\gcc\obj/example/example_system.o
 .comment       0x00000000       0x71 build\gcc\obj/example/example_system.o
 .ARM.attributes
                0x00000000       0x39 build\gcc\obj/example/example_system.o
 .text          0x00000000        0x0 build\gcc\obj/example/example_tcpclient.o
 .data          0x00000000        0x0 build\gcc\obj/example/example_tcpclient.o
 .bss           0x00000000        0x0 build\gcc\obj/example/example_tcpclient.o
 .debug_line    0x00000000        0x0 build\gcc\obj/example/example_tcpclient.o
 .debug_str     0x00000000        0x0 build\gcc\obj/example/example_tcpclient.o
 .comment       0x00000000       0x71 build\gcc\obj/example/example_tcpclient.o
 .ARM.attributes
                0x00000000       0x39 build\gcc\obj/example/example_tcpclient.o
 .text          0x00000000        0x0 build\gcc\obj/example/example_time.o
 .data          0x00000000        0x0 build\gcc\obj/example/example_time.o
 .bss           0x00000000        0x0 build\gcc\obj/example/example_time.o
 .debug_line    0x00000000        0x0 build\gcc\obj/example/example_time.o
 .debug_str     0x00000000        0x0 build\gcc\obj/example/example_time.o
 .comment       0x00000000       0x71 build\gcc\obj/example/example_time.o
 .ARM.attributes
                0x00000000       0x39 build\gcc\obj/example/example_time.o
 .text          0x00000000        0x0 build\gcc\obj/example/example_timer.o
 .data          0x00000000        0x0 build\gcc\obj/example/example_timer.o
 .bss           0x00000000        0x0 build\gcc\obj/example/example_timer.o
 .debug_line    0x00000000        0x0 build\gcc\obj/example/example_timer.o
 .debug_str     0x00000000        0x0 build\gcc\obj/example/example_timer.o
 .comment       0x00000000       0x71 build\gcc\obj/example/example_timer.o
 .ARM.attributes
                0x00000000       0x39 build\gcc\obj/example/example_timer.o
 .text          0x00000000        0x0 build\gcc\obj/example/example_udpclient.o
 .data          0x00000000        0x0 build\gcc\obj/example/example_udpclient.o
 .bss           0x00000000        0x0 build\gcc\obj/example/example_udpclient.o
 .debug_line    0x00000000        0x0 build\gcc\obj/example/example_udpclient.o
 .debug_str     0x00000000        0x0 build\gcc\obj/example/example_udpclient.o
 .comment       0x00000000       0x71 build\gcc\obj/example/example_udpclient.o
 .ARM.attributes
                0x00000000       0x39 build\gcc\obj/example/example_udpclient.o
 .text          0x00000000        0x0 build\gcc\obj/example/example_watchdog.o
 .data          0x00000000        0x0 build\gcc\obj/example/example_watchdog.o
 .bss           0x00000000        0x0 build\gcc\obj/example/example_watchdog.o
 .debug_line    0x00000000        0x0 build\gcc\obj/example/example_watchdog.o
 .debug_str     0x00000000        0x0 build\gcc\obj/example/example_watchdog.o
 .comment       0x00000000       0x71 build\gcc\obj/example/example_watchdog.o
 .ARM.attributes
                0x00000000       0x39 build\gcc\obj/example/example_watchdog.o
 .text          0x00000000        0x0 build\gcc\obj/example/utility.o
 .data          0x00000000        0x0 build\gcc\obj/example/utility.o
 .bss           0x00000000        0x0 build\gcc\obj/example/utility.o
 .text.Analyse_Command
                0x00000000       0xec build\gcc\obj/example/utility.o
 .rodata.str1.1
                0x00000000        0xb build\gcc\obj/example/utility.o
 .debug_info    0x00000000      0x28e build\gcc\obj/example/utility.o
 .debug_abbrev  0x00000000      0x154 build\gcc\obj/example/utility.o
 .debug_loc     0x00000000      0x2e4 build\gcc\obj/example/utility.o
 .debug_aranges
                0x00000000       0x20 build\gcc\obj/example/utility.o
 .debug_ranges  0x00000000       0x10 build\gcc\obj/example/utility.o
 .debug_line    0x00000000       0x89 build\gcc\obj/example/utility.o
 .debug_str     0x00000000      0x264 build\gcc\obj/example/utility.o
 .comment       0x00000000       0x71 build\gcc\obj/example/utility.o
 .ARM.attributes
                0x00000000       0x39 build\gcc\obj/example/utility.o
 .debug_frame   0x00000000       0x3c build\gcc\obj/example/utility.o
 .text          0x00000000        0x0 build\gcc\obj/App/Pluto-Switch3-V1.0/app_task.o
 .data          0x00000000        0x0 build\gcc\obj/App/Pluto-Switch3-V1.0/app_task.o
 .bss           0x00000000        0x0 build\gcc\obj/App/Pluto-Switch3-V1.0/app_task.o
 .rodata.test_sn
                0x00000000       0x10 build\gcc\obj/App/Pluto-Switch3-V1.0/app_task.o
 .data.I2C_SlaveAddr
                0x00000000        0x1 build\gcc\obj/App/Pluto-Switch3-V1.0/app_task.o
 .rodata.test_addr
                0x00000000        0x8 build\gcc\obj/App/Pluto-Switch3-V1.0/app_task.o
 .rodata.SnInfo
                0x00000000       0x28 build\gcc\obj/App/Pluto-Switch3-V1.0/app_task.o
 .text          0x00000000        0x0 build\gcc\obj/App/Pluto-Switch3-V1.0/bc26_init.o
 .data          0x00000000        0x0 build\gcc\obj/App/Pluto-Switch3-V1.0/bc26_init.o
 .bss           0x00000000        0x0 build\gcc\obj/App/Pluto-Switch3-V1.0/bc26_init.o
 .text.bc26_isok
                0x00000000       0x14 build\gcc\obj/App/Pluto-Switch3-V1.0/bc26_init.o
 .text.bc26_setDRxMode
                0x00000000       0x74 build\gcc\obj/App/Pluto-Switch3-V1.0/bc26_init.o
 .data.ATENABLEDBGHSL
                0x00000000        0x4 build\gcc\obj/App/Pluto-Switch3-V1.0/bc26_init.o
 .rodata.__FUNCTION__.4572
                0x00000000       0x10 build\gcc\obj/App/Pluto-Switch3-V1.0/bc26_init.o
 .data.ATActivePDP
                0x00000000        0x4 build\gcc\obj/App/Pluto-Switch3-V1.0/bc26_init.o
 .data.ATSeteDRxMode
                0x00000000        0x4 build\gcc\obj/App/Pluto-Switch3-V1.0/bc26_init.o
 .data.ATENABLEDBGGKI
                0x00000000        0x4 build\gcc\obj/App/Pluto-Switch3-V1.0/bc26_init.o
 .text          0x00000000        0x0 build\gcc\obj/App/Pluto-Switch3-V1.0/factory_settings.o
 .data          0x00000000        0x0 build\gcc\obj/App/Pluto-Switch3-V1.0/factory_settings.o
 .bss           0x00000000        0x0 build\gcc\obj/App/Pluto-Switch3-V1.0/factory_settings.o
 .text          0x00000000        0x0 build\gcc\obj/App/Pluto-Switch3-V1.0/Hal_HTU.o
 .data          0x00000000        0x0 build\gcc\obj/App/Pluto-Switch3-V1.0/Hal_HTU.o
 .bss           0x00000000        0x0 build\gcc\obj/App/Pluto-Switch3-V1.0/Hal_HTU.o
 .bss.flag      0x00000000        0x1 build\gcc\obj/App/Pluto-Switch3-V1.0/Hal_HTU.o
 .text          0x00000000        0x0 build\gcc\obj/App/Pluto-Switch3-V1.0/hal_i2c.o
 .data          0x00000000        0x0 build\gcc\obj/App/Pluto-Switch3-V1.0/hal_i2c.o
 .bss           0x00000000        0x0 build\gcc\obj/App/Pluto-Switch3-V1.0/hal_i2c.o
 .text          0x00000000        0x0 build\gcc\obj/App/Pluto-Switch3-V1.0/hal_key.o
 .data          0x00000000        0x0 build\gcc\obj/App/Pluto-Switch3-V1.0/hal_key.o
 .bss           0x00000000        0x0 build\gcc\obj/App/Pluto-Switch3-V1.0/hal_key.o
 .text          0x00000000        0x0 build\gcc\obj/App/Pluto-Switch3-V1.0/hal_lamp.o
 .data          0x00000000        0x0 build\gcc\obj/App/Pluto-Switch3-V1.0/hal_lamp.o
 .bss           0x00000000        0x0 build\gcc\obj/App/Pluto-Switch3-V1.0/hal_lamp.o
 .text          0x00000000        0x0 build\gcc\obj/App/Pluto-Switch3-V1.0/hal_led.o
 .data          0x00000000        0x0 build\gcc\obj/App/Pluto-Switch3-V1.0/hal_led.o
 .bss           0x00000000        0x0 build\gcc\obj/App/Pluto-Switch3-V1.0/hal_led.o
 .text          0x00000000        0x0 build\gcc\obj/App/Pluto-Switch3-V1.0/hal_MT.o
 .data          0x00000000        0x0 build\gcc\obj/App/Pluto-Switch3-V1.0/hal_MT.o
 .bss           0x00000000        0x0 build\gcc\obj/App/Pluto-Switch3-V1.0/hal_MT.o
 .text.hal_mt_input_byte
                0x00000000       0x24 build\gcc\obj/App/Pluto-Switch3-V1.0/hal_MT.o
 .text.hal_mt_read
                0x00000000       0xb0 build\gcc\obj/App/Pluto-Switch3-V1.0/hal_MT.o
 .text          0x00000000        0x0 build\gcc\obj/App/Pluto-Switch3-V1.0/hal_uart.o
 .data          0x00000000        0x0 build\gcc\obj/App/Pluto-Switch3-V1.0/hal_uart.o
 .bss           0x00000000        0x0 build\gcc\obj/App/Pluto-Switch3-V1.0/hal_uart.o
 .text          0x00000000        0x0 build\gcc\obj/App/Pluto-Switch3-V1.0/main.o
 .data          0x00000000        0x0 build\gcc\obj/App/Pluto-Switch3-V1.0/main.o
 .bss           0x00000000        0x0 build\gcc\obj/App/Pluto-Switch3-V1.0/main.o
 .text          0x00000000        0x0 build\gcc\obj/pluto/pluto_entry.o
 .data          0x00000000        0x0 build\gcc\obj/pluto/pluto_entry.o
 .bss           0x00000000        0x0 build\gcc\obj/pluto/pluto_entry.o
 .text.pluto_led_blink
                0x00000000       0x10 build\gcc\obj/pluto/pluto_entry.o
 .text          0x00000000        0x0 build\gcc\obj/pluto/fs/pluto_file_system.o
 .data          0x00000000        0x0 build\gcc\obj/pluto/fs/pluto_file_system.o
 .bss           0x00000000        0x0 build\gcc\obj/pluto/fs/pluto_file_system.o
 .text.pluto_delete_all_file
                0x00000000       0x10 build\gcc\obj/pluto/fs/pluto_file_system.o
 .text          0x00000000        0x0 build\gcc\obj/pluto/json/cJSON.o
 .data          0x00000000        0x0 build\gcc\obj/pluto/json/cJSON.o
 .bss           0x00000000        0x0 build\gcc\obj/pluto/json/cJSON.o
 .text.create_reference
                0x00000000       0x28 build\gcc\obj/pluto/json/cJSON.o
 .text.cJSON_PrintUnformatted
                0x00000000       0x14 build\gcc\obj/pluto/json/cJSON.o
 .text.cJSON_PrintBuffered
                0x00000000       0x2c build\gcc\obj/pluto/json/cJSON.o
 .text.cJSON_AddItemToObjectCS
                0x00000000       0x28 build\gcc\obj/pluto/json/cJSON.o
 .text.cJSON_AddItemReferenceToArray
                0x00000000       0x1c build\gcc\obj/pluto/json/cJSON.o
 .text.cJSON_AddItemReferenceToObject
                0x00000000       0x20 build\gcc\obj/pluto/json/cJSON.o
 .text.cJSON_InsertItemInArray
                0x00000000       0x34 build\gcc\obj/pluto/json/cJSON.o
 .text.cJSON_ReplaceItemInArray
                0x00000000       0x3c build\gcc\obj/pluto/json/cJSON.o
 .text.cJSON_ReplaceItemInObject
                0x00000000       0x44 build\gcc\obj/pluto/json/cJSON.o
 .text.cJSON_CreateNull
                0x00000000       0x14 build\gcc\obj/pluto/json/cJSON.o
 .text.cJSON_CreateTrue
                0x00000000       0x14 build\gcc\obj/pluto/json/cJSON.o
 .text.cJSON_CreateFalse
                0x00000000       0x14 build\gcc\obj/pluto/json/cJSON.o
 .text.cJSON_CreateBool
                0x00000000       0x18 build\gcc\obj/pluto/json/cJSON.o
 .text.cJSON_CreateIntArray
                0x00000000       0x40 build\gcc\obj/pluto/json/cJSON.o
 .text.cJSON_CreateStringArray
                0x00000000       0x40 build\gcc\obj/pluto/json/cJSON.o
 .text.cJSON_Duplicate
                0x00000000       0x74 build\gcc\obj/pluto/json/cJSON.o
 .text.cJSON_Minify
                0x00000000       0x92 build\gcc\obj/pluto/json/cJSON.o
 .text          0x00000000        0x0 build\gcc\obj/pluto/socket/tcp_socket.o
 .data          0x00000000        0x0 build\gcc\obj/pluto/socket/tcp_socket.o
 .bss           0x00000000        0x0 build\gcc\obj/pluto/socket/tcp_socket.o
 .text.tcp_enable
                0x00000000        0xc build\gcc\obj/pluto/socket/tcp_socket.o
 .text.proc_tcp_task
                0x00000000       0x10 build\gcc\obj/pluto/socket/tcp_socket.o
 .data.tcp_active
                0x00000000        0x1 build\gcc\obj/pluto/socket/tcp_socket.o
 .text          0x00000000        0x0 build\gcc\obj/pluto/socket/udp_socket.o
 .data          0x00000000        0x0 build\gcc\obj/pluto/socket/udp_socket.o
 .bss           0x00000000        0x0 build\gcc\obj/pluto/socket/udp_socket.o
 .text.udp_enable
                0x00000000        0xc build\gcc\obj/pluto/socket/udp_socket.o
 .data.udp_active
                0x00000000        0x1 build\gcc\obj/pluto/socket/udp_socket.o
 .text          0x00000000        0x0 build\gcc\obj/pluto/spiffs/fs_entry.o
 .data          0x00000000        0x0 build\gcc\obj/pluto/spiffs/fs_entry.o
 .bss           0x00000000        0x0 build\gcc\obj/pluto/spiffs/fs_entry.o
 .text          0x00000000        0x0 build\gcc\obj/pluto/spiffs/hal_spi.o
 .data          0x00000000        0x0 build\gcc\obj/pluto/spiffs/hal_spi.o
 .bss           0x00000000        0x0 build\gcc\obj/pluto/spiffs/hal_spi.o
 .text          0x00000000        0x0 build\gcc\obj/pluto/spiffs/spiffs_cache.o
 .data          0x00000000        0x0 build\gcc\obj/pluto/spiffs/spiffs_cache.o
 .bss           0x00000000        0x0 build\gcc\obj/pluto/spiffs/spiffs_cache.o
 .text          0x00000000        0x0 build\gcc\obj/pluto/spiffs/spiffs_check.o
 .data          0x00000000        0x0 build\gcc\obj/pluto/spiffs/spiffs_check.o
 .bss           0x00000000        0x0 build\gcc\obj/pluto/spiffs/spiffs_check.o
 .text.spiffs_object_get_data_page_index_reference
                0x00000000       0x94 build\gcc\obj/pluto/spiffs/spiffs_check.o
 .text.spiffs_delete_obj_lazy
                0x00000000       0x58 build\gcc\obj/pluto/spiffs/spiffs_check.o
 .text.spiffs_rewrite_index
                0x00000000      0x198 build\gcc\obj/pluto/spiffs/spiffs_check.o
 .text.spiffs_rewrite_page
                0x00000000       0x4c build\gcc\obj/pluto/spiffs/spiffs_check.o
 .text.spiffs_lookup_check_v
                0x00000000      0x604 build\gcc\obj/pluto/spiffs/spiffs_check.o
 .text.spiffs_object_index_consistency_check_v
                0x00000000      0x1b4 build\gcc\obj/pluto/spiffs/spiffs_check.o
 .text.spiffs_lookup_consistency_check
                0x00000000       0x70 build\gcc\obj/pluto/spiffs/spiffs_check.o
 .text.spiffs_page_consistency_check
                0x00000000      0x664 build\gcc\obj/pluto/spiffs/spiffs_check.o
 .text.spiffs_object_index_consistency_check
                0x00000000       0x80 build\gcc\obj/pluto/spiffs/spiffs_check.o
 .debug_info    0x00000000     0x1cd4 build\gcc\obj/pluto/spiffs/spiffs_check.o
 .debug_abbrev  0x00000000      0x399 build\gcc\obj/pluto/spiffs/spiffs_check.o
 .debug_loc     0x00000000     0x1568 build\gcc\obj/pluto/spiffs/spiffs_check.o
 .debug_aranges
                0x00000000       0x60 build\gcc\obj/pluto/spiffs/spiffs_check.o
 .debug_ranges  0x00000000      0x1a0 build\gcc\obj/pluto/spiffs/spiffs_check.o
 .debug_line    0x00000000      0x44b build\gcc\obj/pluto/spiffs/spiffs_check.o
 .debug_str     0x00000000      0x96d build\gcc\obj/pluto/spiffs/spiffs_check.o
 .comment       0x00000000       0x71 build\gcc\obj/pluto/spiffs/spiffs_check.o
 .ARM.attributes
                0x00000000       0x39 build\gcc\obj/pluto/spiffs/spiffs_check.o
 .debug_frame   0x00000000      0x160 build\gcc\obj/pluto/spiffs/spiffs_check.o
 .text          0x00000000        0x0 build\gcc\obj/pluto/spiffs/spiffs_flash_functions.o
 .data          0x00000000        0x0 build\gcc\obj/pluto/spiffs/spiffs_flash_functions.o
 .bss           0x00000000        0x0 build\gcc\obj/pluto/spiffs/spiffs_flash_functions.o
 .text          0x00000000        0x0 build\gcc\obj/pluto/spiffs/spiffs_gc.o
 .data          0x00000000        0x0 build\gcc\obj/pluto/spiffs/spiffs_gc.o
 .bss           0x00000000        0x0 build\gcc\obj/pluto/spiffs/spiffs_gc.o
 .text          0x00000000        0x0 build\gcc\obj/pluto/spiffs/spiffs_hydrogen.o
 .data          0x00000000        0x0 build\gcc\obj/pluto/spiffs/spiffs_hydrogen.o
 .bss           0x00000000        0x0 build\gcc\obj/pluto/spiffs/spiffs_hydrogen.o
 .text.SPIFFS_mounted
                0x00000000        0xc build\gcc\obj/pluto/spiffs/spiffs_hydrogen.o
 .text.SPIFFS_errno
                0x00000000        0x4 build\gcc\obj/pluto/spiffs/spiffs_hydrogen.o
 .text.SPIFFS_clearerr
                0x00000000        0x6 build\gcc\obj/pluto/spiffs/spiffs_hydrogen.o
 .text.SPIFFS_creat
                0x00000000       0x7c build\gcc\obj/pluto/spiffs/spiffs_hydrogen.o
 .text.SPIFFS_open_by_dirent
                0x00000000       0xb4 build\gcc\obj/pluto/spiffs/spiffs_hydrogen.o
 .text.SPIFFS_open_by_page
                0x00000000       0xfc build\gcc\obj/pluto/spiffs/spiffs_hydrogen.o
 .text.SPIFFS_lseek
                0x00000000       0xf0 build\gcc\obj/pluto/spiffs/spiffs_hydrogen.o
 .text.SPIFFS_fremove
                0x00000000       0x6c build\gcc\obj/pluto/spiffs/spiffs_hydrogen.o
 .text.SPIFFS_fstat
                0x00000000       0x5c build\gcc\obj/pluto/spiffs/spiffs_hydrogen.o
 .text.SPIFFS_fflush
                0x00000000       0x38 build\gcc\obj/pluto/spiffs/spiffs_hydrogen.o
 .text.SPIFFS_check
                0x00000000       0x54 build\gcc\obj/pluto/spiffs/spiffs_hydrogen.o
 .text.SPIFFS_gc_quick
                0x00000000       0x3c build\gcc\obj/pluto/spiffs/spiffs_hydrogen.o
 .text.SPIFFS_gc
                0x00000000       0x3c build\gcc\obj/pluto/spiffs/spiffs_hydrogen.o
 .text.SPIFFS_eof
                0x00000000       0x60 build\gcc\obj/pluto/spiffs/spiffs_hydrogen.o
 .text.SPIFFS_tell
                0x00000000       0x50 build\gcc\obj/pluto/spiffs/spiffs_hydrogen.o
 .text.SPIFFS_set_file_callback_func
                0x00000000        0x6 build\gcc\obj/pluto/spiffs/spiffs_hydrogen.o
 .text.SPIFFS_ix_map
                0x00000000       0xa4 build\gcc\obj/pluto/spiffs/spiffs_hydrogen.o
 .text.SPIFFS_ix_unmap
                0x00000000       0x4c build\gcc\obj/pluto/spiffs/spiffs_hydrogen.o
 .text.SPIFFS_ix_remap
                0x00000000       0xf4 build\gcc\obj/pluto/spiffs/spiffs_hydrogen.o
 .text.SPIFFS_bytes_to_ix_map_entries
                0x00000000       0x24 build\gcc\obj/pluto/spiffs/spiffs_hydrogen.o
 .text.SPIFFS_ix_map_entries_to_bytes
                0x00000000       0x20 build\gcc\obj/pluto/spiffs/spiffs_hydrogen.o
 .text.SPIFFS_vis
                0x00000000      0x1ec build\gcc\obj/pluto/spiffs/spiffs_hydrogen.o
 .rodata.str1.1
                0x00000000       0xb0 build\gcc\obj/pluto/spiffs/spiffs_hydrogen.o
 .text          0x00000000        0x0 build\gcc\obj/pluto/spiffs/spiffs_nucleus.o
 .data          0x00000000        0x0 build\gcc\obj/pluto/spiffs/spiffs_nucleus.o
 .bss           0x00000000        0x0 build\gcc\obj/pluto/spiffs/spiffs_nucleus.o
 .text.spiffs_populate_ix_map_v
                0x00000000      0x104 build\gcc\obj/pluto/spiffs/spiffs_nucleus.o
 .text.spiffs_obj_lu_find_id_and_span_by_phdr
                0x00000000       0x8c build\gcc\obj/pluto/spiffs/spiffs_nucleus.o
 .text.spiffs_populate_ix_map
                0x00000000       0xd0 build\gcc\obj/pluto/spiffs/spiffs_nucleus.o
 .text.spiffs_object_open_by_id
                0x00000000       0x40 build\gcc\obj/pluto/spiffs/spiffs_nucleus.o
 .text          0x00000000        0x0 build\gcc\obj/pluto/spiffs/w25qxx.o
 .data          0x00000000        0x0 build\gcc\obj/pluto/spiffs/w25qxx.o
 .bss           0x00000000        0x0 build\gcc\obj/pluto/spiffs/w25qxx.o
 .text.W25qxx_BlockLock
                0x00000000       0x64 build\gcc\obj/pluto/spiffs/w25qxx.o
 .text.W25qxx_WriteDisable
                0x00000000       0x28 build\gcc\obj/pluto/spiffs/w25qxx.o
 .text.W25qxx_ReadID2
                0x00000000       0x60 build\gcc\obj/pluto/spiffs/w25qxx.o
 .text.W25qxx_WriteStatusRegister
                0x00000000       0x6c build\gcc\obj/pluto/spiffs/w25qxx.o
 .text.W25qxx_EraseChip
                0x00000000       0x64 build\gcc\obj/pluto/spiffs/w25qxx.o
 .text.W25qxx_EraseBlock
                0x00000000       0xa4 build\gcc\obj/pluto/spiffs/w25qxx.o
 .text.W25qxx_PageToSector
                0x00000000       0x14 build\gcc\obj/pluto/spiffs/w25qxx.o
 .text.W25qxx_PageToBlock
                0x00000000       0x14 build\gcc\obj/pluto/spiffs/w25qxx.o
 .text.W25qxx_SectorToBlock
                0x00000000       0x14 build\gcc\obj/pluto/spiffs/w25qxx.o
 .text.W25qxx_SectorToPage
                0x00000000       0x14 build\gcc\obj/pluto/spiffs/w25qxx.o
 .text.W25qxx_BlockToPage
                0x00000000       0x14 build\gcc\obj/pluto/spiffs/w25qxx.o
 .text.W25qxx_IsEmptyPage
                0x00000000      0x12c build\gcc\obj/pluto/spiffs/w25qxx.o
 .text.W25qxx_IsEmptySector
                0x00000000      0x12c build\gcc\obj/pluto/spiffs/w25qxx.o
 .text.W25qxx_IsEmptyBlock
                0x00000000      0x12c build\gcc\obj/pluto/spiffs/w25qxx.o
 .text.W25qxx_WriteByte
                0x00000000       0x9c build\gcc\obj/pluto/spiffs/w25qxx.o
 .text.W25qxx_WriteBlock
                0x00000000       0x78 build\gcc\obj/pluto/spiffs/w25qxx.o
 .text.W25qxx_ReadByte
                0x00000000       0x88 build\gcc\obj/pluto/spiffs/w25qxx.o
 .text.W25qxx_ReadBytes
                0x00000000       0x90 build\gcc\obj/pluto/spiffs/w25qxx.o
 .text.W25qxx_ReadBlock
                0x00000000       0x78 build\gcc\obj/pluto/spiffs/w25qxx.o
 .text          0x00000000        0x0 pluto/plutolib.a(pluto.o)
 .data          0x00000000        0x0 pluto/plutolib.a(pluto.o)
 .bss           0x00000000        0x0 pluto/plutolib.a(pluto.o)
 .text          0x00000000        0x0 pluto/plutolib.a(pluto_common.o)
 .data          0x00000000        0x0 pluto/plutolib.a(pluto_common.o)
 .bss           0x00000000        0x0 pluto/plutolib.a(pluto_common.o)
 .text.pluto_get_busy_mask
                0x00000000        0xc pluto/plutolib.a(pluto_common.o)
 .text.pluto_get_server_url
                0x00000000       0x1c pluto/plutolib.a(pluto_common.o)
 .text.pluto_get_adminkey
                0x00000000        0x8 pluto/plutolib.a(pluto_common.o)
 .text          0x00000000        0x0 pluto/plutolib.a(aps_common.o)
 .data          0x00000000        0x0 pluto/plutolib.a(aps_common.o)
 .bss           0x00000000        0x0 pluto/plutolib.a(aps_common.o)
 .text          0x00000000        0x0 pluto/plutolib.a(aps_output.o)
 .data          0x00000000        0x0 pluto/plutolib.a(aps_output.o)
 .bss           0x00000000        0x0 pluto/plutolib.a(aps_output.o)
 .text          0x00000000        0x0 pluto/plutolib.a(aps_user.o)
 .data          0x00000000        0x0 pluto/plutolib.a(aps_user.o)
 .bss           0x00000000        0x0 pluto/plutolib.a(aps_user.o)
 .text.aps_get_user_number
                0x00000000       0x1c pluto/plutolib.a(aps_user.o)
 .text          0x00000000        0x0 pluto/plutolib.a(lcl_output.o)
 .data          0x00000000        0x0 pluto/plutolib.a(lcl_output.o)
 .bss           0x00000000        0x0 pluto/plutolib.a(lcl_output.o)
 .text          0x00000000        0x0 pluto/plutolib.a(login.o)
 .data          0x00000000        0x0 pluto/plutolib.a(login.o)
 .bss           0x00000000        0x0 pluto/plutolib.a(login.o)
 .text.login_stop
                0x00000000       0x38 pluto/plutolib.a(login.o)
 .text.login_logout
                0x00000000       0x40 pluto/plutolib.a(login.o)
 .text          0x00000000        0x0 pluto/plutolib.a(nwk_common.o)
 .data          0x00000000        0x0 pluto/plutolib.a(nwk_common.o)
 .bss           0x00000000        0x0 pluto/plutolib.a(nwk_common.o)
 .text.socket_tcp_input
                0x00000000       0x4c pluto/plutolib.a(nwk_common.o)
 .text          0x00000000        0x0 pluto/plutolib.a(nwk_nib.o)
 .data          0x00000000        0x0 pluto/plutolib.a(nwk_nib.o)
 .bss           0x00000000        0x0 pluto/plutolib.a(nwk_nib.o)
 .text.nwk_get_led_flag
                0x00000000        0xc pluto/plutolib.a(nwk_nib.o)
 .text.nwk_set_led_flag
                0x00000000        0xc pluto/plutolib.a(nwk_nib.o)
 .text          0x00000000        0x0 pluto/plutolib.a(nwk_output.o)
 .data          0x00000000        0x0 pluto/plutolib.a(nwk_output.o)
 .bss           0x00000000        0x0 pluto/plutolib.a(nwk_output.o)
 .text.nwk_route_ready_cb
                0x00000000       0x28 pluto/plutolib.a(nwk_output.o)
 .text          0x00000000        0x0 pluto/plutolib.a(nwk_pre_input.o)
 .data          0x00000000        0x0 pluto/plutolib.a(nwk_pre_input.o)
 .bss           0x00000000        0x0 pluto/plutolib.a(nwk_pre_input.o)
 .text          0x00000000        0x0 pluto/plutolib.a(nwk_route.o)
 .data          0x00000000        0x0 pluto/plutolib.a(nwk_route.o)
 .bss           0x00000000        0x0 pluto/plutolib.a(nwk_route.o)
 .text.nwk_device_info_init
                0x00000000       0x18 pluto/plutolib.a(nwk_route.o)
 .text.nwk_route_get_id
                0x00000000       0x38 pluto/plutolib.a(nwk_route.o)
 .text.nwk_route_next_ip
                0x00000000       0x48 pluto/plutolib.a(nwk_route.o)
 .text          0x00000000        0x0 pluto/plutolib.a(osCore.o)
 .data          0x00000000        0x0 pluto/plutolib.a(osCore.o)
 .bss           0x00000000        0x0 pluto/plutolib.a(osCore.o)
 .text          0x00000000        0x0 pluto/plutolib.a(osLibc.o)
 .data          0x00000000        0x0 pluto/plutolib.a(osLibc.o)
 .bss           0x00000000        0x0 pluto/plutolib.a(osLibc.o)
 .text.osSrand  0x00000000        0xc pluto/plutolib.a(osLibc.o)
 .text.osBtoA   0x00000000       0x10 pluto/plutolib.a(osLibc.o)
 .text.osRandbytes
                0x00000000       0x34 pluto/plutolib.a(osLibc.o)
 .text.osStrcat
                0x00000000       0x1c pluto/plutolib.a(osLibc.o)
 .text.osStrnlen
                0x00000000       0x14 pluto/plutolib.a(osLibc.o)
 .text.osBtoU64
                0x00000000       0x2c pluto/plutolib.a(osLibc.o)
 .text.osU64toB
                0x00000000       0x1a pluto/plutolib.a(osLibc.o)
 .text.osItoA   0x00000000       0x48 pluto/plutolib.a(osLibc.o)
 .text.osSkipAtoI
                0x00000000       0x20 pluto/plutolib.a(osLibc.o)
 .text.osGetXOR
                0x00000000       0x16 pluto/plutolib.a(osLibc.o)
 .text          0x00000000        0x0 pluto/plutolib.a(osTimer.o)
 .data          0x00000000        0x0 pluto/plutolib.a(osTimer.o)
 .bss           0x00000000        0x0 pluto/plutolib.a(osTimer.o)
 .text.osGetmsSecond
                0x00000000        0xc pluto/plutolib.a(osTimer.o)
 .text.osStartSuperTimer
                0x00000000       0x20 pluto/plutolib.a(osTimer.o)
 .text.osStartSuperReloadTimer
                0x00000000       0x20 pluto/plutolib.a(osTimer.o)
 .text.osTimerInfo
                0x00000000       0x34 pluto/plutolib.a(osTimer.o)
 .rodata.str1.1
                0x00000000       0x2d pluto/plutolib.a(osTimer.o)
 .text          0x00000000        0x0 pluto/plutolib.a(osTrace.o)
 .data          0x00000000        0x0 pluto/plutolib.a(osTrace.o)
 .bss           0x00000000        0x0 pluto/plutolib.a(osTrace.o)
 .text          0x00000000        0x0 pluto/plutolib.a(printf.o)
 .data          0x00000000        0x0 pluto/plutolib.a(printf.o)
 .bss           0x00000000        0x0 pluto/plutolib.a(printf.o)
 .text._out_char
                0x00000000       0x10 pluto/plutolib.a(printf.o)
 .text._out_fct
                0x00000000        0xc pluto/plutolib.a(printf.o)
 .text.printf_  0x00000000       0x2c pluto/plutolib.a(printf.o)
 .text.snprintf_
                0x00000000       0x30 pluto/plutolib.a(printf.o)
 .text.fctprintf
                0x00000000       0x34 pluto/plutolib.a(printf.o)
 .text          0x00000000        0x0 pluto/plutolib.a(pdo_describe.o)
 .data          0x00000000        0x0 pluto/plutolib.a(pdo_describe.o)
 .bss           0x00000000        0x0 pluto/plutolib.a(pdo_describe.o)
 .text.pdo_set_delete_port_listener
                0x00000000        0xc pluto/plutolib.a(pdo_describe.o)
 .text.pdo_get_free_port
                0x00000000       0x48 pluto/plutolib.a(pdo_describe.o)
 .text.pdo_port_is_exist
                0x00000000       0x44 pluto/plutolib.a(pdo_describe.o)
 .text.pdo_port_set_value
                0x00000000       0x70 pluto/plutolib.a(pdo_describe.o)
 .text.pdo_port_set_string
                0x00000000       0x70 pluto/plutolib.a(pdo_describe.o)
 .text.pdo_port_get_value
                0x00000000       0x34 pluto/plutolib.a(pdo_describe.o)
 .text.pdo_port_get_string
                0x00000000       0x34 pluto/plutolib.a(pdo_describe.o)
 .text.pdo_get_port_by_value2
                0x00000000       0x78 pluto/plutolib.a(pdo_describe.o)
 .text.pdo_count_port_by_value
                0x00000000       0x58 pluto/plutolib.a(pdo_describe.o)
 .text.pdo_count_port_by_string
                0x00000000       0x60 pluto/plutolib.a(pdo_describe.o)
 .text.pdo_get_port_by_value_index
                0x00000000       0x74 pluto/plutolib.a(pdo_describe.o)
 .text.pdo_get_port_by_string_index
                0x00000000       0x7c pluto/plutolib.a(pdo_describe.o)
 .text          0x00000000        0x0 pluto/plutolib.a(pdo_keys.o)
 .data          0x00000000        0x0 pluto/plutolib.a(pdo_keys.o)
 .bss           0x00000000        0x0 pluto/plutolib.a(pdo_keys.o)
 .text.pdo_clear_device_keys
                0x00000000       0x24 pluto/plutolib.a(pdo_keys.o)
 .text.pdo_remove_device_key
                0x00000000       0x68 pluto/plutolib.a(pdo_keys.o)
 .text.pdo_remove_device_keys
                0x00000000       0x4c pluto/plutolib.a(pdo_keys.o)
 .text          0x00000000        0x0 pluto/plutolib.a(pdo_nib.o)
 .data          0x00000000        0x0 pluto/plutolib.a(pdo_nib.o)
 .bss           0x00000000        0x0 pluto/plutolib.a(pdo_nib.o)
 .text.pdo_get_version
                0x00000000        0xc pluto/plutolib.a(pdo_nib.o)
 .text          0x00000000        0x0 pluto/plutolib.a(pdo_record.o)
 .data          0x00000000        0x0 pluto/plutolib.a(pdo_record.o)
 .bss           0x00000000        0x0 pluto/plutolib.a(pdo_record.o)
 .text          0x00000000        0x0 pluto/plutolib.a(pdo_scene.o)
 .data          0x00000000        0x0 pluto/plutolib.a(pdo_scene.o)
 .bss           0x00000000        0x0 pluto/plutolib.a(pdo_scene.o)
 .text          0x00000000        0x0 pluto/plutolib.a(pdo_server.o)
 .data          0x00000000        0x0 pluto/plutolib.a(pdo_server.o)
 .bss           0x00000000        0x0 pluto/plutolib.a(pdo_server.o)
 .text.pdo_get_vender_id
                0x00000000       0x50 pluto/plutolib.a(pdo_server.o)
 .text.pdo_get_product_id
                0x00000000       0x50 pluto/plutolib.a(pdo_server.o)
 .text.pdo_write_server
                0x00000000      0x138 pluto/plutolib.a(pdo_server.o)
 .text          0x00000000        0x0 pluto/plutolib.a(pdo_update.o)
 .data          0x00000000        0x0 pluto/plutolib.a(pdo_update.o)
 .bss           0x00000000        0x0 pluto/plutolib.a(pdo_update.o)
 .text.pdo_check_and_upgrade
                0x00000000        0x4 pluto/plutolib.a(pdo_update.o)
 .text          0x00000000        0x0 pluto/plutolib.a(scene.o)
 .data          0x00000000        0x0 pluto/plutolib.a(scene.o)
 .bss           0x00000000        0x0 pluto/plutolib.a(scene.o)
 .text.Scene_CreatBody
                0x00000000        0xc pluto/plutolib.a(scene.o)
 .text.Scene_Addif
                0x00000000       0x3c pluto/plutolib.a(scene.o)
 .text.Scene_AddReadFor
                0x00000000       0x3c pluto/plutolib.a(scene.o)
 .text.Scene_AddException
                0x00000000       0x24 pluto/plutolib.a(scene.o)
 .text.Scene_AddWhile
                0x00000000       0x14 pluto/plutolib.a(scene.o)
 .text.Scene_AddElse
                0x00000000       0x24 pluto/plutolib.a(scene.o)
 .text.Scene_AddAction
                0x00000000       0x20 pluto/plutolib.a(scene.o)
 .text          0x00000000        0x0 pluto/plutolib.a(scene_core.o)
 .data          0x00000000        0x0 pluto/plutolib.a(scene_core.o)
 .bss           0x00000000        0x0 pluto/plutolib.a(scene_core.o)
 .text.Scene_GetTaskNum
                0x00000000       0x14 pluto/plutolib.a(scene_core.o)
 .text.Scene_ReadTaskNameByID
                0x00000000       0x20 pluto/plutolib.a(scene_core.o)
 .text.Scene_ReadTaskStateByID
                0x00000000       0x20 pluto/plutolib.a(scene_core.o)
 .text.Scene_TestTask
                0x00000000       0x10 pluto/plutolib.a(scene_core.o)
 .text          0x00000000        0x0 pluto/plutolib.a(scene_do.o)
 .data          0x00000000        0x0 pluto/plutolib.a(scene_do.o)
 .bss           0x00000000        0x0 pluto/plutolib.a(scene_do.o)
 .text.Scene_Read
                0x00000000      0x114 pluto/plutolib.a(scene_do.o)
 .text.Scene_DelRegBySymbol
                0x00000000       0x22 pluto/plutolib.a(scene_do.o)
 .text          0x00000000        0x0 pluto/plutolib.a(scene_lib.o)
 .data          0x00000000        0x0 pluto/plutolib.a(scene_lib.o)
 .bss           0x00000000        0x0 pluto/plutolib.a(scene_lib.o)
 .text.Scene_SkipNotString
                0x00000000       0x1c pluto/plutolib.a(scene_lib.o)
 .text          0x00000000        0x0 pluto/plutolib.a(scene_message.o)
 .data          0x00000000        0x0 pluto/plutolib.a(scene_message.o)
 .bss           0x00000000        0x0 pluto/plutolib.a(scene_message.o)
 .text          0x00000000        0x0 pluto/plutolib.a(scene_reason.o)
 .data          0x00000000        0x0 pluto/plutolib.a(scene_reason.o)
 .bss           0x00000000        0x0 pluto/plutolib.a(scene_reason.o)
 .text          0x00000000        0x0 pluto/plutolib.a(aID.o)
 .data          0x00000000        0x0 pluto/plutolib.a(aID.o)
 .bss           0x00000000        0x0 pluto/plutolib.a(aID.o)
 .text          0x00000000        0x0 pluto/plutolib.a(aps_input.o)
 .data          0x00000000        0x0 pluto/plutolib.a(aps_input.o)
 .bss           0x00000000        0x0 pluto/plutolib.a(aps_input.o)
 .text          0x00000000        0x0 pluto/plutolib.a(lcl_common.o)
 .data          0x00000000        0x0 pluto/plutolib.a(lcl_common.o)
 .bss           0x00000000        0x0 pluto/plutolib.a(lcl_common.o)
 .text          0x00000000        0x0 pluto/plutolib.a(lcl_crypto.o)
 .data          0x00000000        0x0 pluto/plutolib.a(lcl_crypto.o)
 .bss           0x00000000        0x0 pluto/plutolib.a(lcl_crypto.o)
 .text          0x00000000        0x0 pluto/plutolib.a(nwk_input.o)
 .data          0x00000000        0x0 pluto/plutolib.a(nwk_input.o)
 .bss           0x00000000        0x0 pluto/plutolib.a(nwk_input.o)
 .text          0x00000000        0x0 pluto/plutolib.a(pdo.o)
 .data          0x00000000        0x0 pluto/plutolib.a(pdo.o)
 .bss           0x00000000        0x0 pluto/plutolib.a(pdo.o)
 .text.pdo_set_permit_join_listener
                0x00000000        0xc pluto/plutolib.a(pdo.o)
 .text.pdo_req_send_device_annouce
                0x00000000       0x6c pluto/plutolib.a(pdo.o)
 .text.pdo_req_send_beacon
                0x00000000       0x4c pluto/plutolib.a(pdo.o)
 .text.pdo_req_read_unixtime
                0x00000000       0x48 pluto/plutolib.a(pdo.o)
 .rodata.__FUNCTION__.5614
                0x00000000       0x1c pluto/plutolib.a(pdo.o)
 .text          0x00000000        0x0 pluto/plutolib.a(pdo_file_system.o)
 .data          0x00000000        0x0 pluto/plutolib.a(pdo_file_system.o)
 .bss           0x00000000        0x0 pluto/plutolib.a(pdo_file_system.o)
 .text.pdo_get_file_length
                0x00000000       0x10 pluto/plutolib.a(pdo_file_system.o)
 .text.pdo_get_file_data
                0x00000000       0x14 pluto/plutolib.a(pdo_file_system.o)
 .text          0x00000000        0x0 pluto/plutolib.a(pdo_utb.o)
 .data          0x00000000        0x0 pluto/plutolib.a(pdo_utb.o)
 .bss           0x00000000        0x0 pluto/plutolib.a(pdo_utb.o)
 .text          0x00000000        0x0 pluto/plutolib.a(lcl_aes.o)
 .data          0x00000000        0x0 pluto/plutolib.a(lcl_aes.o)
 .bss           0x00000000        0x0 pluto/plutolib.a(lcl_aes.o)
 .text.AES_init_ctx
                0x00000000        0xc pluto/plutolib.a(lcl_aes.o)
 .text.AES_ctx_set_iv
                0x00000000       0x10 pluto/plutolib.a(lcl_aes.o)
 .text.AES_ECB_encrypt
                0x00000000       0x14 pluto/plutolib.a(lcl_aes.o)
 .text.AES_ECB_decrypt
                0x00000000       0x14 pluto/plutolib.a(lcl_aes.o)
 .text.AES_CTR_xcrypt_buffer
                0x00000000       0x64 pluto/plutolib.a(lcl_aes.o)
 .text          0x00000000        0x0 pluto/plutolib.a(lcl_input.o)
 .data          0x00000000        0x0 pluto/plutolib.a(lcl_input.o)
 .bss           0x00000000        0x0 pluto/plutolib.a(lcl_input.o)
 .text          0x00000000        0x0 libs/gcc/app_start.lib(gpio.o)
 .data          0x00000000        0x0 libs/gcc/app_start.lib(gpio.o)
 .bss           0x00000000        0x0 libs/gcc/app_start.lib(gpio.o)
 .text.Ql_GPIO_GetDirection
                0x00000000       0x34 libs/gcc/app_start.lib(gpio.o)
 .text.Ql_GPIO_SetPullSelection
                0x00000000       0x38 libs/gcc/app_start.lib(gpio.o)
 .text.Ql_GPIO_Uninit
                0x00000000       0x34 libs/gcc/app_start.lib(gpio.o)
 .bss.m_GPIO_GetDirection
                0x00000000        0x4 libs/gcc/app_start.lib(gpio.o)
 .bss.m_GPIO_SetPullSelection
                0x00000000        0x4 libs/gcc/app_start.lib(gpio.o)
 .bss.m_GPIO_Uninit
                0x00000000        0x4 libs/gcc/app_start.lib(gpio.o)
 .text          0x00000000        0x0 libs/gcc/app_start.lib(memory.o)
 .data          0x00000000        0x0 libs/gcc/app_start.lib(memory.o)
 .bss           0x00000000        0x0 libs/gcc/app_start.lib(memory.o)
 .text          0x00000000        0x0 libs/gcc/app_start.lib(ql_func.o)
 .data          0x00000000        0x0 libs/gcc/app_start.lib(ql_func.o)
 .bss           0x00000000        0x0 libs/gcc/app_start.lib(ql_func.o)
 .text.Ql_StartPlayAudioStream
                0x00000000       0x50 libs/gcc/app_start.lib(ql_func.o)
 .text.Ql_StopPlayAudioStream
                0x00000000       0x30 libs/gcc/app_start.lib(ql_func.o)
 .text.Ql_GetRelativeTime_Counter
                0x00000000       0x28 libs/gcc/app_start.lib(ql_func.o)
 .text.Ql_SecondToTicks
                0x00000000       0x2c libs/gcc/app_start.lib(ql_func.o)
 .text.Ql_MillisecondToTicks
                0x00000000       0x2c libs/gcc/app_start.lib(ql_func.o)
 .text.Ql_CalendarTime2LocalTime
                0x00000000       0x34 libs/gcc/app_start.lib(ql_func.o)
 .text.Ql_osChangeTaskPriority
                0x00000000       0x30 libs/gcc/app_start.lib(ql_func.o)
 .bss.m_SecondToTicks
                0x00000000        0x4 libs/gcc/app_start.lib(ql_func.o)
 .bss.m_GetRelativeTime_Counter
                0x00000000        0x4 libs/gcc/app_start.lib(ql_func.o)
 .rodata.str1.1
                0x00000000       0xa3 libs/gcc/app_start.lib(ql_func.o)
 .bss.m_StartPlayAudioStream
                0x00000000        0x4 libs/gcc/app_start.lib(ql_func.o)
 .bss.m_StopPlayAudioStream
                0x00000000        0x4 libs/gcc/app_start.lib(ql_func.o)
 .bss.m_CalendarTime2LocalTime
                0x00000000        0x4 libs/gcc/app_start.lib(ql_func.o)
 .bss.m_MillisecondToTicks
                0x00000000        0x4 libs/gcc/app_start.lib(ql_func.o)
 .bss.m_osChangeTaskPriority
                0x00000000        0x4 libs/gcc/app_start.lib(ql_func.o)
 .text          0x00000000        0x0 libs/gcc/app_start.lib(ql_main.o)
 .data          0x00000000        0x0 libs/gcc/app_start.lib(ql_main.o)
 .bss           0x00000000        0x0 libs/gcc/app_start.lib(ql_main.o)
 .text          0x00000000        0x0 libs/gcc/app_start.lib(ril_aux.o)
 .data          0x00000000        0x0 libs/gcc/app_start.lib(ril_aux.o)
 .bss           0x00000000        0x0 libs/gcc/app_start.lib(ril_aux.o)
 .text          0x00000000        0x0 libs/gcc/app_start.lib(ril_main.o)
 .data          0x00000000        0x0 libs/gcc/app_start.lib(ril_main.o)
 .bss           0x00000000        0x0 libs/gcc/app_start.lib(ril_main.o)
 .text.get_ril_init_status
                0x00000000        0xc libs/gcc/app_start.lib(ril_main.o)
 .text.Ql_RIL_WriteDataToCore
                0x00000000        0x4 libs/gcc/app_start.lib(ril_main.o)
 .text          0x00000000        0x0 libs/gcc/app_start.lib(spi.o)
 .data          0x00000000        0x0 libs/gcc/app_start.lib(spi.o)
 .bss           0x00000000        0x0 libs/gcc/app_start.lib(spi.o)
 .text.Ql_SPI_WriteRead_Ex
                0x00000000       0x48 libs/gcc/app_start.lib(spi.o)
 .text.Ql_SPI_Uninit
                0x00000000       0x34 libs/gcc/app_start.lib(spi.o)
 .bss.m_SPI_Uninit
                0x00000000        0x4 libs/gcc/app_start.lib(spi.o)
 .bss.m_SPI_WriteRead_Ex
                0x00000000        0x4 libs/gcc/app_start.lib(spi.o)
 .text          0x00000000        0x0 libs/gcc/app_start.lib(stdlib_func.o)
 .data          0x00000000        0x0 libs/gcc/app_start.lib(stdlib_func.o)
 .bss           0x00000000        0x0 libs/gcc/app_start.lib(stdlib_func.o)
 .text.Ql_create_api_hash
                0x00000000       0x18 libs/gcc/app_start.lib(stdlib_func.o)
 .text.Ql_ui64toa
                0x00000000       0x60 libs/gcc/app_start.lib(stdlib_func.o)
 .text.Ql_itoa  0x00000000       0x58 libs/gcc/app_start.lib(stdlib_func.o)
 .text.Ql_atof  0x00000000       0x60 libs/gcc/app_start.lib(stdlib_func.o)
 .text.Ql_strcat
                0x00000000       0x48 libs/gcc/app_start.lib(stdlib_func.o)
 .text.Ql_strncat
                0x00000000       0x50 libs/gcc/app_start.lib(stdlib_func.o)
 .text.Ql_memmove
                0x00000000       0x50 libs/gcc/app_start.lib(stdlib_func.o)
 .text.Ql_tolower
                0x00000000        0x4 libs/gcc/app_start.lib(stdlib_func.o)
 .text.Ql_isdigit
                0x00000000        0xc libs/gcc/app_start.lib(stdlib_func.o)
 .bss.m_memmove
                0x00000000        0x4 libs/gcc/app_start.lib(stdlib_func.o)
 .bss.m_atof    0x00000000        0x4 libs/gcc/app_start.lib(stdlib_func.o)
 .bss.m_strncat
                0x00000000        0x4 libs/gcc/app_start.lib(stdlib_func.o)
 .bss.m_itoa    0x00000000        0x4 libs/gcc/app_start.lib(stdlib_func.o)
 .bss.m_strcat  0x00000000        0x4 libs/gcc/app_start.lib(stdlib_func.o)
 .bss.m_ui64toa
                0x00000000        0x4 libs/gcc/app_start.lib(stdlib_func.o)
 .text          0x00000000        0x0 libs/gcc/app_start.lib(system.o)
 .data          0x00000000        0x0 libs/gcc/app_start.lib(system.o)
 .bss           0x00000000        0x0 libs/gcc/app_start.lib(system.o)
 .text.Ql_Delay_us
                0x00000000       0x2c libs/gcc/app_start.lib(system.o)
 .bss.m_Delay_us
                0x00000000        0x4 libs/gcc/app_start.lib(system.o)
 .text          0x00000000        0x0 libs/gcc/app_start.lib(taskMngt.o)
 .data          0x00000000        0x0 libs/gcc/app_start.lib(taskMngt.o)
 .bss           0x00000000        0x0 libs/gcc/app_start.lib(taskMngt.o)
 .text.Ql_OS_SendMessageFromISR
                0x00000000       0x44 libs/gcc/app_start.lib(taskMngt.o)
 .text.Ql_OS_CreateSemaphore
                0x00000000       0x30 libs/gcc/app_start.lib(taskMngt.o)
 .text.Ql_OS_TakeSemaphore
                0x00000000       0x30 libs/gcc/app_start.lib(taskMngt.o)
 .text.Ql_OS_GiveSemaphore
                0x00000000       0x2c libs/gcc/app_start.lib(taskMngt.o)
 .text.Ql_OS_GetActiveTaskId
                0x00000000       0x30 libs/gcc/app_start.lib(taskMngt.o)
 .text.Ql_OS_GetTaskTickCount
                0x00000000       0x30 libs/gcc/app_start.lib(taskMngt.o)
 .text.Ql_OS_GetTaskTickCountFromISR
                0x00000000       0x30 libs/gcc/app_start.lib(taskMngt.o)
 .text.Ql_SetLastErrorCode
                0x00000000       0x34 libs/gcc/app_start.lib(taskMngt.o)
 .text.Ql_GetLastErrorCode
                0x00000000       0x30 libs/gcc/app_start.lib(taskMngt.o)
 .text.Ql_OS_GetCurrentTaskPriority
                0x00000000       0x28 libs/gcc/app_start.lib(taskMngt.o)
 .text.Ql_OS_GetCurrenTaskLeftStackSize
                0x00000000       0x28 libs/gcc/app_start.lib(taskMngt.o)
 .text.Ql_SecureData_Store
                0x00000000       0x34 libs/gcc/app_start.lib(taskMngt.o)
 .text.Ql_SecureData_Read
                0x00000000       0x34 libs/gcc/app_start.lib(taskMngt.o)
 .bss.m_OS_GetTaskTickCountFromISR
                0x00000000        0x4 libs/gcc/app_start.lib(taskMngt.o)
 .bss.m_OS_SendMessageFromISR
                0x00000000        0x4 libs/gcc/app_start.lib(taskMngt.o)
 .bss.m_OS_GetActiveTaskId
                0x00000000        0x4 libs/gcc/app_start.lib(taskMngt.o)
 .bss.m_OS_CreateSemaphore
                0x00000000        0x4 libs/gcc/app_start.lib(taskMngt.o)
 .bss.m_OS_GetCurrenTaskLeftStackSize
                0x00000000        0x4 libs/gcc/app_start.lib(taskMngt.o)
 .bss.m_Ql_SecureData_Store
                0x00000000        0x4 libs/gcc/app_start.lib(taskMngt.o)
 .bss.m_GetLastErrorCode
                0x00000000        0x4 libs/gcc/app_start.lib(taskMngt.o)
 .bss.m_OS_GiveSemaphore
                0x00000000        0x4 libs/gcc/app_start.lib(taskMngt.o)
 .bss.m_SetLastErrorCode
                0x00000000        0x4 libs/gcc/app_start.lib(taskMngt.o)
 .bss.m_Ql_SecureData_Read
                0x00000000        0x4 libs/gcc/app_start.lib(taskMngt.o)
 .bss.m_OS_TakeSemaphore
                0x00000000        0x4 libs/gcc/app_start.lib(taskMngt.o)
 .bss.m_OS_GetTaskTickCount
                0x00000000        0x4 libs/gcc/app_start.lib(taskMngt.o)
 .bss.m_OS_GetCurrentTaskPriority
                0x00000000        0x4 libs/gcc/app_start.lib(taskMngt.o)
 .text          0x00000000        0x0 libs/gcc/app_start.lib(timer.o)
 .data          0x00000000        0x0 libs/gcc/app_start.lib(timer.o)
 .bss           0x00000000        0x0 libs/gcc/app_start.lib(timer.o)
 .text.Ql_Timer_RegisterFast
                0x00000000       0x3c libs/gcc/app_start.lib(timer.o)
 .text.Ql_Timer_Delete
                0x00000000       0x34 libs/gcc/app_start.lib(timer.o)
 .text.Ql_Timer_Register_us
                0x00000000       0x3c libs/gcc/app_start.lib(timer.o)
 .text.Ql_Timer_Start_us
                0x00000000       0x3c libs/gcc/app_start.lib(timer.o)
 .text.Ql_Timer_Stop_us
                0x00000000       0x34 libs/gcc/app_start.lib(timer.o)
 .text.Ql_Timer_Delete_us
                0x00000000       0x34 libs/gcc/app_start.lib(timer.o)
 .bss.m_Timer_Register_us
                0x00000000        0x4 libs/gcc/app_start.lib(timer.o)
 .bss.m_Timer_Delete_us
                0x00000000        0x4 libs/gcc/app_start.lib(timer.o)
 .bss.m_Timer_Stop_us
                0x00000000        0x4 libs/gcc/app_start.lib(timer.o)
 .bss.m_Timer_Start_us
                0x00000000        0x4 libs/gcc/app_start.lib(timer.o)
 .bss.m_Timer_RegisterFast
                0x00000000        0x4 libs/gcc/app_start.lib(timer.o)
 .bss.m_Timer_Delete
                0x00000000        0x4 libs/gcc/app_start.lib(timer.o)
 .text          0x00000000        0x0 libs/gcc/app_start.lib(uart.o)
 .data          0x00000000        0x0 libs/gcc/app_start.lib(uart.o)
 .bss           0x00000000        0x0 libs/gcc/app_start.lib(uart.o)
 .text.Ql_UART_OpenEx
                0x00000000       0x38 libs/gcc/app_start.lib(uart.o)
 .text.Ql_UART_Close
                0x00000000       0x2c libs/gcc/app_start.lib(uart.o)
 .text.Ql_UART_GetOption
                0x00000000       0x38 libs/gcc/app_start.lib(uart.o)
 .bss.m_Ql_UART_Close
                0x00000000        0x4 libs/gcc/app_start.lib(uart.o)
 .bss.m_Ql_UART_GetOption
                0x00000000        0x4 libs/gcc/app_start.lib(uart.o)
 .bss.m_Ql_UART_OpenEx
                0x00000000        0x4 libs/gcc/app_start.lib(uart.o)
 .data          0x00000000        0x0 libs/gcc/app_start.lib(ocpu_init.o)
 .bss           0x00000000        0x0 libs/gcc/app_start.lib(ocpu_init.o)
 .text          0x00000000        0x0 tools\gcc\win\gcc-arm-none-eabi/arm-none-eabi/lib/armv7e-m/fpu/libc.a(lib_a-atoi.o)
 .data          0x00000000        0x0 tools\gcc\win\gcc-arm-none-eabi/arm-none-eabi/lib/armv7e-m/fpu/libc.a(lib_a-atoi.o)
 .bss           0x00000000        0x0 tools\gcc\win\gcc-arm-none-eabi/arm-none-eabi/lib/armv7e-m/fpu/libc.a(lib_a-atoi.o)
 .text._atoi_r  0x00000000        0x8 tools\gcc\win\gcc-arm-none-eabi/arm-none-eabi/lib/armv7e-m/fpu/libc.a(lib_a-atoi.o)
 .data          0x00000000        0x0 tools\gcc\win\gcc-arm-none-eabi/arm-none-eabi/lib/armv7e-m/fpu/libc.a(lib_a-memcpy.o)
 .bss           0x00000000        0x0 tools\gcc\win\gcc-arm-none-eabi/arm-none-eabi/lib/armv7e-m/fpu/libc.a(lib_a-memcpy.o)
 .text          0x00000000        0x0 tools\gcc\win\gcc-arm-none-eabi/arm-none-eabi/lib/armv7e-m/fpu/libc.a(lib_a-memset.o)
 .data          0x00000000        0x0 tools\gcc\win\gcc-arm-none-eabi/arm-none-eabi/lib/armv7e-m/fpu/libc.a(lib_a-memset.o)
 .bss           0x00000000        0x0 tools\gcc\win\gcc-arm-none-eabi/arm-none-eabi/lib/armv7e-m/fpu/libc.a(lib_a-memset.o)
 .text          0x00000000        0x0 tools\gcc\win\gcc-arm-none-eabi/arm-none-eabi/lib/armv7e-m/fpu/libc.a(lib_a-strchr.o)
 .data          0x00000000        0x0 tools\gcc\win\gcc-arm-none-eabi/arm-none-eabi/lib/armv7e-m/fpu/libc.a(lib_a-strchr.o)
 .bss           0x00000000        0x0 tools\gcc\win\gcc-arm-none-eabi/arm-none-eabi/lib/armv7e-m/fpu/libc.a(lib_a-strchr.o)
 .text          0x00000000        0x0 tools\gcc\win\gcc-arm-none-eabi/arm-none-eabi/lib/armv7e-m/fpu/libc.a(lib_a-strcpy.o)
 .data          0x00000000        0x0 tools\gcc\win\gcc-arm-none-eabi/arm-none-eabi/lib/armv7e-m/fpu/libc.a(lib_a-strcpy.o)
 .bss           0x00000000        0x0 tools\gcc\win\gcc-arm-none-eabi/arm-none-eabi/lib/armv7e-m/fpu/libc.a(lib_a-strcpy.o)
 .text          0x00000000        0x0 tools\gcc\win\gcc-arm-none-eabi/arm-none-eabi/lib/armv7e-m/fpu/libc.a(lib_a-strlen.o)
 .data          0x00000000        0x0 tools\gcc\win\gcc-arm-none-eabi/arm-none-eabi/lib/armv7e-m/fpu/libc.a(lib_a-strlen.o)
 .bss           0x00000000        0x0 tools\gcc\win\gcc-arm-none-eabi/arm-none-eabi/lib/armv7e-m/fpu/libc.a(lib_a-strlen.o)
 .text          0x00000000        0x0 tools\gcc\win\gcc-arm-none-eabi/arm-none-eabi/lib/armv7e-m/fpu/libc.a(lib_a-strncpy.o)
 .data          0x00000000        0x0 tools\gcc\win\gcc-arm-none-eabi/arm-none-eabi/lib/armv7e-m/fpu/libc.a(lib_a-strncpy.o)
 .bss           0x00000000        0x0 tools\gcc\win\gcc-arm-none-eabi/arm-none-eabi/lib/armv7e-m/fpu/libc.a(lib_a-strncpy.o)
 .text          0x00000000        0x0 tools\gcc\win\gcc-arm-none-eabi/arm-none-eabi/lib/armv7e-m/fpu/libc.a(lib_a-strsep.o)
 .data          0x00000000        0x0 tools\gcc\win\gcc-arm-none-eabi/arm-none-eabi/lib/armv7e-m/fpu/libc.a(lib_a-strsep.o)
 .bss           0x00000000        0x0 tools\gcc\win\gcc-arm-none-eabi/arm-none-eabi/lib/armv7e-m/fpu/libc.a(lib_a-strsep.o)
 .text          0x00000000        0x0 tools\gcc\win\gcc-arm-none-eabi/arm-none-eabi/lib/armv7e-m/fpu/libc.a(lib_a-strtok.o)
 .data          0x00000000        0x0 tools\gcc\win\gcc-arm-none-eabi/arm-none-eabi/lib/armv7e-m/fpu/libc.a(lib_a-strtok.o)
 .bss           0x00000000        0x0 tools\gcc\win\gcc-arm-none-eabi/arm-none-eabi/lib/armv7e-m/fpu/libc.a(lib_a-strtok.o)
 .text          0x00000000        0x0 tools\gcc\win\gcc-arm-none-eabi/arm-none-eabi/lib/armv7e-m/fpu/libc.a(lib_a-strtok_r.o)
 .data          0x00000000        0x0 tools\gcc\win\gcc-arm-none-eabi/arm-none-eabi/lib/armv7e-m/fpu/libc.a(lib_a-strtok_r.o)
 .bss           0x00000000        0x0 tools\gcc\win\gcc-arm-none-eabi/arm-none-eabi/lib/armv7e-m/fpu/libc.a(lib_a-strtok_r.o)
 .text.strtok_r
                0x00000000        0x8 tools\gcc\win\gcc-arm-none-eabi/arm-none-eabi/lib/armv7e-m/fpu/libc.a(lib_a-strtok_r.o)
 .text          0x00000000        0x0 tools\gcc\win\gcc-arm-none-eabi/arm-none-eabi/lib/armv7e-m/fpu/libc.a(lib_a-strtol.o)
 .data          0x00000000        0x0 tools\gcc\win\gcc-arm-none-eabi/arm-none-eabi/lib/armv7e-m/fpu/libc.a(lib_a-strtol.o)
 .bss           0x00000000        0x0 tools\gcc\win\gcc-arm-none-eabi/arm-none-eabi/lib/armv7e-m/fpu/libc.a(lib_a-strtol.o)
 .text          0x00000000        0x0 tools\gcc\win\gcc-arm-none-eabi/arm-none-eabi/lib/armv7e-m/fpu/libc.a(lib_a-ctype_.o)
 .data          0x00000000        0x0 tools\gcc\win\gcc-arm-none-eabi/arm-none-eabi/lib/armv7e-m/fpu/libc.a(lib_a-ctype_.o)
 .bss           0x00000000        0x0 tools\gcc\win\gcc-arm-none-eabi/arm-none-eabi/lib/armv7e-m/fpu/libc.a(lib_a-ctype_.o)
 .text          0x00000000        0x0 tools\gcc\win\gcc-arm-none-eabi/arm-none-eabi/lib/armv7e-m/fpu/libc.a(lib_a-impure.o)
 .data          0x00000000        0x0 tools\gcc\win\gcc-arm-none-eabi/arm-none-eabi/lib/armv7e-m/fpu/libc.a(lib_a-impure.o)
 .bss           0x00000000        0x0 tools\gcc\win\gcc-arm-none-eabi/arm-none-eabi/lib/armv7e-m/fpu/libc.a(lib_a-impure.o)
 .rodata._global_impure_ptr
                0x00000000        0x4 tools\gcc\win\gcc-arm-none-eabi/arm-none-eabi/lib/armv7e-m/fpu/libc.a(lib_a-impure.o)
 .data          0x00000000        0x0 tools\gcc\win\gcc-arm-none-eabi/lib/gcc/arm-none-eabi/4.8.3/armv7e-m/fpu/libgcc.a(_arm_addsubdf3.o)
 .bss           0x00000000        0x0 tools\gcc\win\gcc-arm-none-eabi/lib/gcc/arm-none-eabi/4.8.3/armv7e-m/fpu/libgcc.a(_arm_addsubdf3.o)
 .data          0x00000000        0x0 tools\gcc\win\gcc-arm-none-eabi/lib/gcc/arm-none-eabi/4.8.3/armv7e-m/fpu/libgcc.a(_arm_muldivdf3.o)
 .bss           0x00000000        0x0 tools\gcc\win\gcc-arm-none-eabi/lib/gcc/arm-none-eabi/4.8.3/armv7e-m/fpu/libgcc.a(_arm_muldivdf3.o)
 .data          0x00000000        0x0 tools\gcc\win\gcc-arm-none-eabi/lib/gcc/arm-none-eabi/4.8.3/armv7e-m/fpu/libgcc.a(_arm_cmpdf2.o)
 .bss           0x00000000        0x0 tools\gcc\win\gcc-arm-none-eabi/lib/gcc/arm-none-eabi/4.8.3/armv7e-m/fpu/libgcc.a(_arm_cmpdf2.o)
 .data          0x00000000        0x0 tools\gcc\win\gcc-arm-none-eabi/lib/gcc/arm-none-eabi/4.8.3/armv7e-m/fpu/libgcc.a(_arm_fixdfsi.o)
 .bss           0x00000000        0x0 tools\gcc\win\gcc-arm-none-eabi/lib/gcc/arm-none-eabi/4.8.3/armv7e-m/fpu/libgcc.a(_arm_fixdfsi.o)
 .data          0x00000000        0x0 tools\gcc\win\gcc-arm-none-eabi/lib/gcc/arm-none-eabi/4.8.3/armv7e-m/fpu/libgcc.a(_arm_fixunsdfsi.o)
 .bss           0x00000000        0x0 tools\gcc\win\gcc-arm-none-eabi/lib/gcc/arm-none-eabi/4.8.3/armv7e-m/fpu/libgcc.a(_arm_fixunsdfsi.o)
 .data          0x00000000        0x0 tools\gcc\win\gcc-arm-none-eabi/lib/gcc/arm-none-eabi/4.8.3/armv7e-m/fpu/libgcc.a(_aeabi_uldivmod.o)
 .bss           0x00000000        0x0 tools\gcc\win\gcc-arm-none-eabi/lib/gcc/arm-none-eabi/4.8.3/armv7e-m/fpu/libgcc.a(_aeabi_uldivmod.o)
 .data          0x00000000        0x0 tools\gcc\win\gcc-arm-none-eabi/lib/gcc/arm-none-eabi/4.8.3/armv7e-m/fpu/libgcc.a(bpabi.o)
 .bss           0x00000000        0x0 tools\gcc\win\gcc-arm-none-eabi/lib/gcc/arm-none-eabi/4.8.3/armv7e-m/fpu/libgcc.a(bpabi.o)
 .data          0x00000000        0x0 tools\gcc\win\gcc-arm-none-eabi/lib/gcc/arm-none-eabi/4.8.3/armv7e-m/fpu/libgcc.a(_dvmd_tls.o)
 .bss           0x00000000        0x0 tools\gcc\win\gcc-arm-none-eabi/lib/gcc/arm-none-eabi/4.8.3/armv7e-m/fpu/libgcc.a(_dvmd_tls.o)
 .data          0x00000000        0x0 tools\gcc\win\gcc-arm-none-eabi/lib/gcc/arm-none-eabi/4.8.3/armv7e-m/fpu/libgcc.a(_divdi3.o)
 .bss           0x00000000        0x0 tools\gcc\win\gcc-arm-none-eabi/lib/gcc/arm-none-eabi/4.8.3/armv7e-m/fpu/libgcc.a(_divdi3.o)
 .ARM.extab     0x00000000        0x0 tools\gcc\win\gcc-arm-none-eabi/lib/gcc/arm-none-eabi/4.8.3/armv7e-m/fpu/libgcc.a(_divdi3.o)
 .data          0x00000000        0x0 tools\gcc\win\gcc-arm-none-eabi/lib/gcc/arm-none-eabi/4.8.3/armv7e-m/fpu/libgcc.a(_udivdi3.o)
 .bss           0x00000000        0x0 tools\gcc\win\gcc-arm-none-eabi/lib/gcc/arm-none-eabi/4.8.3/armv7e-m/fpu/libgcc.a(_udivdi3.o)
 .ARM.extab     0x00000000        0x0 tools\gcc\win\gcc-arm-none-eabi/lib/gcc/arm-none-eabi/4.8.3/armv7e-m/fpu/libgcc.a(_udivdi3.o)

Memory Configuration

Name             Origin             Length             Attributes
ROM              0x08292040         0x00032000         xr
RAM              0x001e7000         0x00019000         xrw
*default*        0x00000000         0xffffffff

Linker script and memory map

                0x08292040                . = 0x8292040

.initdata       0x08292040       0x2c
                0x08292040                . = ALIGN (0x4)
 *(.initdata)
 .initdata      0x08292040       0x2c libs/gcc/app_start.lib(ql_main.o)
                0x08292040                GADLENTRY

text            0x08292070    0x15708
                0x08292070                . = ALIGN (0x4)
 *(.text.*)
 .text.Ql_RIL_AT_SetErrCode
                0x08292070        0xc build\gcc\obj/ril/src/ril_atResponse.o
                0x08292070                Ql_RIL_AT_SetErrCode
 .text.Default_atRsp_callback
                0x0829207c       0xec build\gcc\obj/ril/src/ril_atResponse.o
                0x0829207c                Default_atRsp_callback
 .text.DFOTA_Analysis
                0x08292168      0x104 build\gcc\obj/ril/src/ril_dfota.o
                0x08292168                DFOTA_Analysis
 .text.Dfota_Upgrade_States
                0x0829226c        0x2 build\gcc\obj/ril/src/ril_dfota.o
                0x0829226c                Dfota_Upgrade_States
 .text.RIL_GetInitCmdCnt
                0x0829226e        0x4 build\gcc\obj/ril/src/ril_init.o
                0x0829226e                RIL_GetInitCmdCnt
 .text.RIL_GetLimitedCmdCnt
                0x08292272        0x4 build\gcc\obj/ril/src/ril_init.o
                0x08292272                RIL_GetLimitedCmdCnt
 *fill*         0x08292276        0x2 
 .text.ATResponse_CEREG_Handler
                0x08292278       0x84 build\gcc\obj/ril/src/ril_network.o
 .text.RIL_SIM_GetSimStateByName
                0x082922fc       0xc8 build\gcc\obj/ril/src/ril_network.o
                0x082922fc                RIL_SIM_GetSimStateByName
 .text.RIL_NW_GetEGPRSState
                0x082923c4       0x4c build\gcc\obj/ril/src/ril_network.o
                0x082923c4                RIL_NW_GetEGPRSState
 .text.ATRsp_Soc_Qiopen_Handler
                0x08292410       0xd4 build\gcc\obj/ril/src/ril_socket.o
 .text.ATRsp_Soc_Qird_Handler
                0x082924e4      0x114 build\gcc\obj/ril/src/ril_socket.o
 .text.ATRsp_Soc_Qisend_Handler
                0x082925f8       0x5c build\gcc\obj/ril/src/ril_socket.o
 .text.ATResponse_Handler
                0x08292654       0x5c build\gcc\obj/ril/src/ril_socket.o
 .text.ATRsp_Soc_Qiclose_Handler
                0x082926b0       0x4c build\gcc\obj/ril/src/ril_socket.o
 .text.RIL_SOC_QIOPEN
                0x082926fc       0xfc build\gcc\obj/ril/src/ril_socket.o
                0x082926fc                RIL_SOC_QIOPEN
 .text.RIL_SOC_QISENDEX
                0x082927f8       0x74 build\gcc\obj/ril/src/ril_socket.o
                0x082927f8                RIL_SOC_QISENDEX
 .text.RIL_SOC_QIRD
                0x0829286c       0xc8 build\gcc\obj/ril/src/ril_socket.o
                0x0829286c                RIL_SOC_QIRD
 .text.RIL_SOC_QICFG_FORMAT
                0x08292934       0x60 build\gcc\obj/ril/src/ril_socket.o
                0x08292934                RIL_SOC_QICFG_FORMAT
 .text.RIL_SOC_QICLOSE
                0x08292994       0x4c build\gcc\obj/ril/src/ril_socket.o
                0x08292994                RIL_SOC_QICLOSE
 .text.open_socket_rd_param_parse_cmd
                0x082929e0      0x160 build\gcc\obj/ril/src/ril_system.o
                0x082929e0                open_socket_rd_param_parse_cmd
 .text.QSDK_Get_Str
                0x08292b40       0x78 build\gcc\obj/ril/src/ril_system.o
                0x08292b40                QSDK_Get_Str
 .text.open_socket_push_json_param_parse_cmd
                0x08292bb8      0x128 build\gcc\obj/ril/src/ril_system.o
                0x08292bb8                open_socket_push_json_param_parse_cmd
 .text.open_lwm2m_param_parse_cmd
                0x08292ce0      0x130 build\gcc\obj/ril/src/ril_system.o
                0x08292ce0                open_lwm2m_param_parse_cmd
 .text.open_onenet_push_param_parse_cmd
                0x08292e10      0x170 build\gcc\obj/ril/src/ril_system.o
                0x08292e10                open_onenet_push_param_parse_cmd
 .text.OnURCHandler_DFOTA_Hander
                0x08292f80       0x3c build\gcc\obj/ril/src/ril_urc.o
 .text.OnURCHandler_ONENET_EXECUTE
                0x08292fbc      0x104 build\gcc\obj/ril/src/ril_urc.o
 .text.OnURCHandler_ONENET_READ
                0x082930c0       0xdc build\gcc\obj/ril/src/ril_urc.o
 .text.OnURCHandler_ONENET_DISCOVER
                0x0829319c       0xac build\gcc\obj/ril/src/ril_urc.o
 .text.OnURCHandler_ONENET_OBSERVER
                0x08293248       0xf0 build\gcc\obj/ril/src/ril_urc.o
 .text.OnURCHandler_ONENET_EVENT
                0x08293338       0xf8 build\gcc\obj/ril/src/ril_urc.o
 .text.OnURCHandler_LwM2M_OBSERVE
                0x08293430       0xc4 build\gcc\obj/ril/src/ril_urc.o
 .text.OnURCHandler_NbiotEvent
                0x082934f4       0x3c build\gcc\obj/ril/src/ril_urc.o
 .text.OnURCHandler_CFUN
                0x08293530       0x70 build\gcc\obj/ril/src/ril_urc.o
 .text.OnURCHandler_Network
                0x082935a0       0x80 build\gcc\obj/ril/src/ril_urc.o
 .text.OnURCHandler_ONENET_WRITE
                0x08293620      0x14c build\gcc\obj/ril/src/ril_urc.o
 .text.OnURCHandler_LwM2M_RECV_DATA
                0x0829376c       0xec build\gcc\obj/ril/src/ril_urc.o
 .text.OnURCHandler_QIURC_DATA
                0x08293858      0x160 build\gcc\obj/ril/src/ril_urc.o
 .text.OnURCHandler_SIM
                0x082939b8       0x90 build\gcc\obj/ril/src/ril_urc.o
 .text.OnURCHandler
                0x08293a48       0x70 build\gcc\obj/ril/src/ril_urc.o
                0x08293a48                OnURCHandler
 .text.Ql_RIL_IsURCStr
                0x08293ab8       0x40 build\gcc\obj/ril/src/ril_urc.o
                0x08293ab8                Ql_RIL_IsURCStr
 .text.Ql_StrPrefixMatch
                0x08293af8       0x28 build\gcc\obj/ril/src/ril_util.o
                0x08293af8                Ql_StrPrefixMatch
 .text.Ql_StrToUpper
                0x08293b20       0x28 build\gcc\obj/ril/src/ril_util.o
                0x08293b20                Ql_StrToUpper
 .text.Ql_RIL_FindString
                0x08293b48       0x50 build\gcc\obj/ril/src/ril_util.o
                0x08293b48                Ql_RIL_FindString
 .text.Ql_RIL_FindLine
                0x08293b98      0x154 build\gcc\obj/ril/src/ril_util.o
                0x08293b98                Ql_RIL_FindLine
 .text.factory_reset
                0x08293cec       0x30 build\gcc\obj/App/Pluto-Switch3-V1.0/app_task.o
 .text.read_sensor
                0x08293d1c       0x5c build\gcc\obj/App/Pluto-Switch3-V1.0/app_task.o
 .text.app_task
                0x08293d78      0x2e0 build\gcc\obj/App/Pluto-Switch3-V1.0/app_task.o
 .text.read_rssi
                0x08294058       0x10 build\gcc\obj/App/Pluto-Switch3-V1.0/app_task.o
 .text.app_login_state_cb
                0x08294068      0x128 build\gcc\obj/App/Pluto-Switch3-V1.0/app_task.o
 .text.recieve_message
                0x08294190      0x15c build\gcc\obj/App/Pluto-Switch3-V1.0/app_task.o
 .text.app_task_init
                0x082942ec       0xa4 build\gcc\obj/App/Pluto-Switch3-V1.0/app_task.o
                0x082942ec                app_task_init
 .text.bc26_receive_process
                0x08294390      0x278 build\gcc\obj/App/Pluto-Switch3-V1.0/bc26_init.o
 .text.bc26_receive_rssi_cb
                0x08294608       0x78 build\gcc\obj/App/Pluto-Switch3-V1.0/bc26_init.o
 .text.bc26_task
                0x08294680      0x1f0 build\gcc\obj/App/Pluto-Switch3-V1.0/bc26_init.o
 .text.bc26_init
                0x08294870       0x2c build\gcc\obj/App/Pluto-Switch3-V1.0/bc26_init.o
                0x08294870                bc26_init
 .text.bc26_query_rssi
                0x0829489c       0x74 build\gcc\obj/App/Pluto-Switch3-V1.0/bc26_init.o
                0x0829489c                bc26_query_rssi
 .text.response_service_info
                0x08294910       0x34 build\gcc\obj/App/Pluto-Switch3-V1.0/factory_settings.o
 .text.mt_command_receive_cb
                0x08294944      0x104 build\gcc\obj/App/Pluto-Switch3-V1.0/factory_settings.o
 .text.factory_task
                0x08294a48       0x30 build\gcc\obj/App/Pluto-Switch3-V1.0/factory_settings.o
 .text.factory_init
                0x08294a78       0x28 build\gcc\obj/App/Pluto-Switch3-V1.0/factory_settings.o
                0x08294a78                factory_init
 .text.HTU21DInit
                0x08294aa0       0x34 build\gcc\obj/App/Pluto-Switch3-V1.0/Hal_HTU.o
                0x08294aa0                HTU21DInit
 .text.HTU21DWork
                0x08294ad4       0xc4 build\gcc\obj/App/Pluto-Switch3-V1.0/Hal_HTU.o
                0x08294ad4                HTU21DWork
 .text.I2C_SDA_1
                0x08294b98       0x20 build\gcc\obj/App/Pluto-Switch3-V1.0/hal_i2c.o
 .text.I2C_SCL_1
                0x08294bb8       0x20 build\gcc\obj/App/Pluto-Switch3-V1.0/hal_i2c.o
 .text.I2C_SDA_0
                0x08294bd8       0x20 build\gcc\obj/App/Pluto-Switch3-V1.0/hal_i2c.o
 .text.I2C_SCL_0
                0x08294bf8       0x20 build\gcc\obj/App/Pluto-Switch3-V1.0/hal_i2c.o
 .text.I2C_SDA_READ
                0x08294c18       0x20 build\gcc\obj/App/Pluto-Switch3-V1.0/hal_i2c.o
 .text.Hal_I2C_Init
                0x08294c38       0x30 build\gcc\obj/App/Pluto-Switch3-V1.0/hal_i2c.o
                0x08294c38                Hal_I2C_Init
 .text.Hal_I2C_Start
                0x08294c68       0x24 build\gcc\obj/App/Pluto-Switch3-V1.0/hal_i2c.o
                0x08294c68                Hal_I2C_Start
 .text.Hal_I2C_Stop
                0x08294c8c       0x24 build\gcc\obj/App/Pluto-Switch3-V1.0/hal_i2c.o
                0x08294c8c                Hal_I2C_Stop
 .text.Hal_I2C_WriteByte
                0x08294cb0       0x54 build\gcc\obj/App/Pluto-Switch3-V1.0/hal_i2c.o
                0x08294cb0                Hal_I2C_WriteByte
 .text.Hal_I2C_ReadByte
                0x08294d04       0x5c build\gcc\obj/App/Pluto-Switch3-V1.0/hal_i2c.o
                0x08294d04                Hal_I2C_ReadByte
 .text.hal_key_init
                0x08294d60       0x24 build\gcc\obj/App/Pluto-Switch3-V1.0/hal_key.o
                0x08294d60                hal_key_init
 .text.hal_key_keeptime
                0x08294d84        0xc build\gcc\obj/App/Pluto-Switch3-V1.0/hal_key.o
                0x08294d84                hal_key_keeptime
 .text.hal_get_key
                0x08294d90       0x70 build\gcc\obj/App/Pluto-Switch3-V1.0/hal_key.o
                0x08294d90                hal_get_key
 .text.hal_lamp_set
                0x08294e00       0x5c build\gcc\obj/App/Pluto-Switch3-V1.0/hal_lamp.o
                0x08294e00                hal_lamp_set
 .text.hal_lamp_init
                0x08294e5c       0x34 build\gcc\obj/App/Pluto-Switch3-V1.0/hal_lamp.o
                0x08294e5c                hal_lamp_init
 .text.hal_lamp_tolgle
                0x08294e90       0x6c build\gcc\obj/App/Pluto-Switch3-V1.0/hal_lamp.o
                0x08294e90                hal_lamp_tolgle
 .text.hal_lamp_get
                0x08294efc       0x40 build\gcc\obj/App/Pluto-Switch3-V1.0/hal_lamp.o
                0x08294efc                hal_lamp_get
 .text.hal_led_set
                0x08294f3c       0x18 build\gcc\obj/App/Pluto-Switch3-V1.0/hal_led.o
                0x08294f3c                hal_led_set
 .text.hal_led_init
                0x08294f54       0x2c build\gcc\obj/App/Pluto-Switch3-V1.0/hal_led.o
                0x08294f54                hal_led_init
 .text.hal_led_task
                0x08294f80       0x5c build\gcc\obj/App/Pluto-Switch3-V1.0/hal_led.o
                0x08294f80                hal_led_task
 .text.hal_led_blink
                0x08294fdc       0x84 build\gcc\obj/App/Pluto-Switch3-V1.0/hal_led.o
                0x08294fdc                hal_led_blink
 .text.read_package
                0x08295060       0xdc build\gcc\obj/App/Pluto-Switch3-V1.0/hal_MT.o
 .text.hal_mt_init
                0x0829513c        0xc build\gcc\obj/App/Pluto-Switch3-V1.0/hal_MT.o
                0x0829513c                hal_mt_init
 .text.hal_mt_input_bytes
                0x08295148       0x38 build\gcc\obj/App/Pluto-Switch3-V1.0/hal_MT.o
                0x08295148                hal_mt_input_bytes
 .text.hal_mt_poll
                0x08295180       0x54 build\gcc\obj/App/Pluto-Switch3-V1.0/hal_MT.o
                0x08295180                hal_mt_poll
 .text.hal_mt_write
                0x082951d4       0x80 build\gcc\obj/App/Pluto-Switch3-V1.0/hal_MT.o
                0x082951d4                hal_mt_write
 .text.uart_int_handler
                0x08295254        0x2 build\gcc\obj/App/Pluto-Switch3-V1.0/hal_uart.o
 *fill*         0x08295256        0x2 
 .text.hal_uart_init
                0x08295258       0x60 build\gcc\obj/App/Pluto-Switch3-V1.0/hal_uart.o
                0x08295258                hal_uart_init
 .text.hal_uart_send
                0x082952b8       0x14 build\gcc\obj/App/Pluto-Switch3-V1.0/hal_uart.o
                0x082952b8                hal_uart_send
 .text.hal_uart_read
                0x082952cc       0x14 build\gcc\obj/App/Pluto-Switch3-V1.0/hal_uart.o
                0x082952cc                hal_uart_read
 .text.proc_main_task
                0x082952e0       0x64 build\gcc\obj/App/Pluto-Switch3-V1.0/main.o
                0x082952e0                proc_main_task
 .text.pluto_task
                0x08295344       0x34 build\gcc\obj/pluto/pluto_entry.o
 .text.pluto_init
                0x08295378       0x30 build\gcc\obj/pluto/pluto_entry.o
                0x08295378                pluto_init
 .text.pluto_registe_led
                0x082953a8        0xc build\gcc\obj/pluto/pluto_entry.o
                0x082953a8                pluto_registe_led
 .text.init_file_system
                0x082953b4       0x5c build\gcc\obj/pluto/fs/pluto_file_system.o
 .text.get_file_size
                0x08295410       0x28 build\gcc\obj/pluto/fs/pluto_file_system.o
 .text.pluto_read_text_file
                0x08295438       0x9c build\gcc\obj/pluto/fs/pluto_file_system.o
                0x08295438                pluto_read_text_file
 .text.pluto_get_file_length
                0x082954d4       0x1c build\gcc\obj/pluto/fs/pluto_file_system.o
                0x082954d4                pluto_get_file_length
 .text.pluto_read_file
                0x082954f0       0xa8 build\gcc\obj/pluto/fs/pluto_file_system.o
                0x082954f0                pluto_read_file
 .text.pluto_get_file_name
                0x08295598       0xd0 build\gcc\obj/pluto/fs/pluto_file_system.o
                0x08295598                pluto_get_file_name
 .text.pluto_delete_file
                0x08295668       0x20 build\gcc\obj/pluto/fs/pluto_file_system.o
                0x08295668                pluto_delete_file
 .text.pluto_write_text_file
                0x08295688       0xa8 build\gcc\obj/pluto/fs/pluto_file_system.o
                0x08295688                pluto_write_text_file
 .text.pluto_write_file
                0x08295730       0x94 build\gcc\obj/pluto/fs/pluto_file_system.o
                0x08295730                pluto_write_file
 .text.pluto_disk_format
                0x082957c4       0x18 build\gcc\obj/pluto/fs/pluto_file_system.o
                0x082957c4                pluto_disk_format
 .text.pluto_rename
                0x082957dc       0x28 build\gcc\obj/pluto/fs/pluto_file_system.o
                0x082957dc                pluto_rename
 .text.pluto_write_sn
                0x08295804       0xc4 build\gcc\obj/pluto/fs/pluto_file_system.o
                0x08295804                pluto_write_sn
 .text.pluto_read_sn
                0x082958c8       0x84 build\gcc\obj/pluto/fs/pluto_file_system.o
                0x082958c8                pluto_read_sn
 .text.parse_hex4
                0x0829594c       0xb2 build\gcc\obj/pluto/json/cJSON.o
 .text.skip     0x082959fe       0x14 build\gcc\obj/pluto/json/cJSON.o
 *fill*         0x08295a12        0x2 
 .text.parse_string
                0x08295a14      0x194 build\gcc\obj/pluto/json/cJSON.o
 .text.cJSON_New_Item
                0x08295ba8       0x20 build\gcc\obj/pluto/json/cJSON.o
 .text.cJSON_strdup
                0x08295bc8       0x2c build\gcc\obj/pluto/json/cJSON.o
 .text.update   0x08295bf4       0x1c build\gcc\obj/pluto/json/cJSON.o
 .text.parse_value
                0x08295c10      0x244 build\gcc\obj/pluto/json/cJSON.o
 .text.ensure   0x08295e54       0x70 build\gcc\obj/pluto/json/cJSON.o
 .text.print_string_ptr
                0x08295ec4      0x164 build\gcc\obj/pluto/json/cJSON.o
 .text.print_number.isra.2
                0x08296028       0x60 build\gcc\obj/pluto/json/cJSON.o
 .text.print_array.isra.6
                0x08296088      0x1f4 build\gcc\obj/pluto/json/cJSON.o
 .text.print_value
                0x0829627c       0xec build\gcc\obj/pluto/json/cJSON.o
 .text.print_object.isra.5
                0x08296368      0x3e4 build\gcc\obj/pluto/json/cJSON.o
 .text.cJSON_tolower
                0x0829674c        0xe build\gcc\obj/pluto/json/cJSON.o
                0x0829674c                cJSON_tolower
 *fill*         0x0829675a        0x2 
 .text.cJSON_strcasecmp
                0x0829675c       0x4c build\gcc\obj/pluto/json/cJSON.o
 .text.cJSON_GetErrorPtr
                0x082967a8        0xc build\gcc\obj/pluto/json/cJSON.o
                0x082967a8                cJSON_GetErrorPtr
 .text.cJSON_Delete
                0x082967b4       0x2c build\gcc\obj/pluto/json/cJSON.o
                0x082967b4                cJSON_Delete
 .text.cJSON_ParseWithOpts
                0x082967e0       0x78 build\gcc\obj/pluto/json/cJSON.o
                0x082967e0                cJSON_ParseWithOpts
 .text.cJSON_Parse
                0x08296858       0x10 build\gcc\obj/pluto/json/cJSON.o
                0x08296858                cJSON_Parse
 .text.cJSON_Print
                0x08296868       0x14 build\gcc\obj/pluto/json/cJSON.o
                0x08296868                cJSON_Print
 .text.cJSON_GetArraySize
                0x0829687c        0xe build\gcc\obj/pluto/json/cJSON.o
                0x0829687c                cJSON_GetArraySize
 .text.cJSON_GetArrayItem
                0x0829688a       0x10 build\gcc\obj/pluto/json/cJSON.o
                0x0829688a                cJSON_GetArrayItem
 *fill*         0x0829689a        0x2 
 .text.cJSON_GetObjectItem
                0x0829689c       0x20 build\gcc\obj/pluto/json/cJSON.o
                0x0829689c                cJSON_GetObjectItem
 .text.cJSON_AddItemToArray
                0x082968bc       0x18 build\gcc\obj/pluto/json/cJSON.o
                0x082968bc                cJSON_AddItemToArray
 .text.cJSON_AddItemToObject
                0x082968d4       0x30 build\gcc\obj/pluto/json/cJSON.o
                0x082968d4                cJSON_AddItemToObject
 .text.cJSON_DetachItemFromArray
                0x08296904       0x32 build\gcc\obj/pluto/json/cJSON.o
                0x08296904                cJSON_DetachItemFromArray
 *fill*         0x08296936        0x2 
 .text.cJSON_DeleteItemFromArray
                0x08296938       0x14 build\gcc\obj/pluto/json/cJSON.o
                0x08296938                cJSON_DeleteItemFromArray
 .text.cJSON_DetachItemFromObject
                0x0829694c       0x34 build\gcc\obj/pluto/json/cJSON.o
                0x0829694c                cJSON_DetachItemFromObject
 .text.cJSON_DeleteItemFromObject
                0x08296980       0x14 build\gcc\obj/pluto/json/cJSON.o
                0x08296980                cJSON_DeleteItemFromObject
 .text.cJSON_CreateNumber
                0x08296994       0x18 build\gcc\obj/pluto/json/cJSON.o
                0x08296994                cJSON_CreateNumber
 .text.cJSON_CreateString
                0x082969ac       0x24 build\gcc\obj/pluto/json/cJSON.o
                0x082969ac                cJSON_CreateString
 .text.cJSON_CreateArray
                0x082969d0       0x14 build\gcc\obj/pluto/json/cJSON.o
                0x082969d0                cJSON_CreateArray
 .text.cJSON_CreateObject
                0x082969e4       0x14 build\gcc\obj/pluto/json/cJSON.o
                0x082969e4                cJSON_CreateObject
 .text.tcp_socket_deinit
                0x082969f8        0x4 build\gcc\obj/pluto/socket/tcp_socket.o
                0x082969f8                tcp_socket_deinit
 .text.tcp_socket_init
                0x082969fc        0x4 build\gcc\obj/pluto/socket/tcp_socket.o
                0x082969fc                tcp_socket_init
 .text.tcp_socket_send
                0x08296a00        0x4 build\gcc\obj/pluto/socket/tcp_socket.o
                0x08296a00                tcp_socket_send
 .text.socket_task
                0x08296a04      0x15c build\gcc\obj/pluto/socket/udp_socket.o
 .text.udp_socket_deinit
                0x08296b60       0x48 build\gcc\obj/pluto/socket/udp_socket.o
                0x08296b60                udp_socket_deinit
 .text.udp_socket_init
                0x08296ba8       0x60 build\gcc\obj/pluto/socket/udp_socket.o
                0x08296ba8                udp_socket_init
 .text.udp_socket_send
                0x08296c08       0x6c build\gcc\obj/pluto/socket/udp_socket.o
                0x08296c08                udp_socket_send
 .text.proc_udp_task
                0x08296c74       0xa8 build\gcc\obj/pluto/socket/udp_socket.o
                0x08296c74                proc_udp_task
 .text.spiffs_mount
                0x08296d1c       0x80 build\gcc\obj/pluto/spiffs/fs_entry.o
 .text.spifs_init
                0x08296d9c       0x8c build\gcc\obj/pluto/spiffs/fs_entry.o
                0x08296d9c                spifs_init
 .text.spifs_format
                0x08296e28       0x40 build\gcc\obj/pluto/spiffs/fs_entry.o
                0x08296e28                spifs_format
 .text.spifs_open
                0x08296e68       0x1c build\gcc\obj/pluto/spiffs/fs_entry.o
                0x08296e68                spifs_open
 .text.spifs_close
                0x08296e84       0x14 build\gcc\obj/pluto/spiffs/fs_entry.o
                0x08296e84                spifs_close
 .text.spifs_write
                0x08296e98       0x1c build\gcc\obj/pluto/spiffs/fs_entry.o
                0x08296e98                spifs_write
 .text.spifs_read
                0x08296eb4       0x1c build\gcc\obj/pluto/spiffs/fs_entry.o
                0x08296eb4                spifs_read
 .text.spifs_stat
                0x08296ed0       0x18 build\gcc\obj/pluto/spiffs/fs_entry.o
                0x08296ed0                spifs_stat
 .text.spifs_opendir
                0x08296ee8       0x18 build\gcc\obj/pluto/spiffs/fs_entry.o
                0x08296ee8                spifs_opendir
 .text.spifs_readdir
                0x08296f00        0xc build\gcc\obj/pluto/spiffs/fs_entry.o
                0x08296f00                spifs_readdir
 .text.spifs_closedir
                0x08296f0c        0xc build\gcc\obj/pluto/spiffs/fs_entry.o
                0x08296f0c                spifs_closedir
 .text.spifs_remove
                0x08296f18       0x14 build\gcc\obj/pluto/spiffs/fs_entry.o
                0x08296f18                spifs_remove
 .text.spifs_rename
                0x08296f2c       0x18 build\gcc\obj/pluto/spiffs/fs_entry.o
                0x08296f2c                spifs_rename
 .text.spifs_info
                0x08296f44       0x18 build\gcc\obj/pluto/spiffs/fs_entry.o
                0x08296f44                spifs_info
 .text.hal_spi_init
                0x08296f5c       0xac build\gcc\obj/pluto/spiffs/hal_spi.o
                0x08296f5c                hal_spi_init
 .text.hal_spi_cs
                0x08297008       0x14 build\gcc\obj/pluto/spiffs/hal_spi.o
                0x08297008                hal_spi_cs
 .text.spiffs_cache_page_get
                0x0829701c       0x48 build\gcc\obj/pluto/spiffs/spiffs_cache.o
 .text.spiffs_cache_page_free
                0x08297064       0x5e build\gcc\obj/pluto/spiffs/spiffs_cache.o
 .text.spiffs_cache_page_allocate
                0x082970c2       0x36 build\gcc\obj/pluto/spiffs/spiffs_cache.o
 .text.spiffs_cache_page_remove_oldest.constprop.0
                0x082970f8       0x68 build\gcc\obj/pluto/spiffs/spiffs_cache.o
 .text.spiffs_cache_drop_page
                0x08297160       0x20 build\gcc\obj/pluto/spiffs/spiffs_cache.o
                0x08297160                spiffs_cache_drop_page
 .text.spiffs_phys_rd
                0x08297180      0x120 build\gcc\obj/pluto/spiffs/spiffs_cache.o
                0x08297180                spiffs_phys_rd
 .text.spiffs_phys_wr
                0x082972a0       0x9c build\gcc\obj/pluto/spiffs/spiffs_cache.o
                0x082972a0                spiffs_phys_wr
 .text.spiffs_cache_page_get_by_fd
                0x0829733c       0x42 build\gcc\obj/pluto/spiffs/spiffs_cache.o
                0x0829733c                spiffs_cache_page_get_by_fd
 *fill*         0x0829737e        0x2 
 .text.spiffs_cache_page_allocate_by_fd
                0x08297380       0x28 build\gcc\obj/pluto/spiffs/spiffs_cache.o
                0x08297380                spiffs_cache_page_allocate_by_fd
 .text.spiffs_cache_fd_release
                0x082973a8       0x38 build\gcc\obj/pluto/spiffs/spiffs_cache.o
                0x082973a8                spiffs_cache_fd_release
 .text.spiffs_cache_init
                0x082973e0       0x94 build\gcc\obj/pluto/spiffs/spiffs_cache.o
                0x082973e0                spiffs_cache_init
 .text.esp_spiffs_read
                0x08297474       0xb8 build\gcc\obj/pluto/spiffs/spiffs_flash_functions.o
                0x08297474                esp_spiffs_read
 .text.esp_spiffs_write
                0x0829752c       0xcc build\gcc\obj/pluto/spiffs/spiffs_flash_functions.o
                0x0829752c                esp_spiffs_write
 .text.esp_spiffs_erase
                0x082975f8       0x74 build\gcc\obj/pluto/spiffs/spiffs_flash_functions.o
                0x082975f8                esp_spiffs_erase
 .text.spiffs_gc_erase_block
                0x0829766c       0x38 build\gcc\obj/pluto/spiffs/spiffs_gc.o
 .text.spiffs_gc_quick
                0x082976a4      0x144 build\gcc\obj/pluto/spiffs/spiffs_gc.o
                0x082976a4                spiffs_gc_quick
 .text.spiffs_gc_erase_page_stats
                0x082977e8       0xc0 build\gcc\obj/pluto/spiffs/spiffs_gc.o
                0x082977e8                spiffs_gc_erase_page_stats
 .text.spiffs_gc_find_candidate
                0x082978a8      0x208 build\gcc\obj/pluto/spiffs/spiffs_gc.o
                0x082978a8                spiffs_gc_find_candidate
 .text.spiffs_gc_clean
                0x08297ab0      0x510 build\gcc\obj/pluto/spiffs/spiffs_gc.o
                0x08297ab0                spiffs_gc_clean
 .text.spiffs_gc_check
                0x08297fc0      0x160 build\gcc\obj/pluto/spiffs/spiffs_gc.o
                0x08297fc0                spiffs_gc_check
 .text.spiffs_stat_pix
                0x08298120       0xac build\gcc\obj/pluto/spiffs/spiffs_hydrogen.o
 .text.spiffs_read_dir_v
                0x082981cc       0xa0 build\gcc\obj/pluto/spiffs/spiffs_hydrogen.o
 .text.spiffs_hydro_write.isra.0
                0x0829826c       0x5c build\gcc\obj/pluto/spiffs/spiffs_hydrogen.o
 .text.spiffs_fflush_cache
                0x082982c8       0x6c build\gcc\obj/pluto/spiffs/spiffs_hydrogen.o
 .text.SPIFFS_format
                0x08298334       0x5c build\gcc\obj/pluto/spiffs/spiffs_hydrogen.o
                0x08298334                SPIFFS_format
 .text.SPIFFS_mount
                0x08298390       0xf8 build\gcc\obj/pluto/spiffs/spiffs_hydrogen.o
                0x08298390                SPIFFS_mount
 .text.SPIFFS_unmount
                0x08298488       0x50 build\gcc\obj/pluto/spiffs/spiffs_hydrogen.o
                0x08298488                SPIFFS_unmount
 .text.SPIFFS_open
                0x082984d8      0x150 build\gcc\obj/pluto/spiffs/spiffs_hydrogen.o
                0x082984d8                SPIFFS_open
 .text.SPIFFS_read
                0x08298628       0xbc build\gcc\obj/pluto/spiffs/spiffs_hydrogen.o
                0x08298628                SPIFFS_read
 .text.SPIFFS_write
                0x082986e4      0x198 build\gcc\obj/pluto/spiffs/spiffs_hydrogen.o
                0x082986e4                SPIFFS_write
 .text.SPIFFS_remove
                0x0829887c       0xd4 build\gcc\obj/pluto/spiffs/spiffs_hydrogen.o
                0x0829887c                SPIFFS_remove
 .text.SPIFFS_stat
                0x08298950       0x6c build\gcc\obj/pluto/spiffs/spiffs_hydrogen.o
                0x08298950                SPIFFS_stat
 .text.SPIFFS_close
                0x082989bc       0x48 build\gcc\obj/pluto/spiffs/spiffs_hydrogen.o
                0x082989bc                SPIFFS_close
 .text.SPIFFS_rename
                0x08298a04      0x110 build\gcc\obj/pluto/spiffs/spiffs_hydrogen.o
                0x08298a04                SPIFFS_rename
 .text.SPIFFS_opendir
                0x08298b14       0x34 build\gcc\obj/pluto/spiffs/spiffs_hydrogen.o
                0x08298b14                SPIFFS_opendir
 .text.SPIFFS_readdir
                0x08298b48       0x68 build\gcc\obj/pluto/spiffs/spiffs_hydrogen.o
                0x08298b48                SPIFFS_readdir
 .text.SPIFFS_closedir
                0x08298bb0       0x2c build\gcc\obj/pluto/spiffs/spiffs_hydrogen.o
                0x08298bb0                SPIFFS_closedir
 .text.SPIFFS_info
                0x08298bdc       0x5c build\gcc\obj/pluto/spiffs/spiffs_hydrogen.o
                0x08298bdc                SPIFFS_info
 .text.spiffs_obj_lu_find_id_and_span_v
                0x08298c38       0x90 build\gcc\obj/pluto/spiffs/spiffs_nucleus.o
 .text.spiffs_page_index_check
                0x08298cc8       0xc8 build\gcc\obj/pluto/spiffs/spiffs_nucleus.o
 .text.spiffs_object_find_object_index_header_by_name_v
                0x08298d90       0x88 build\gcc\obj/pluto/spiffs/spiffs_nucleus.o
 .text.spiffs_obj_lu_find_free_obj_id_bitmap_v
                0x08298e18       0xc4 build\gcc\obj/pluto/spiffs/spiffs_nucleus.o
 .text.spiffs_obj_lu_scan_v
                0x08298edc       0x2c build\gcc\obj/pluto/spiffs/spiffs_nucleus.o
 .text.spiffs_update_ix_map.isra.1
                0x08298f08       0xe2 build\gcc\obj/pluto/spiffs/spiffs_nucleus.o
 .text.spiffs_hash.isra.2
                0x08298fea       0x1c build\gcc\obj/pluto/spiffs/spiffs_nucleus.o
 *fill*         0x08299006        0x2 
 .text.spiffs_page_data_check.isra.3
                0x08299008       0xbc build\gcc\obj/pluto/spiffs/spiffs_nucleus.o
 .text.spiffs_obj_lu_find_free_obj_id_compact_v
                0x082990c4       0xac build\gcc\obj/pluto/spiffs/spiffs_nucleus.o
 .text.spiffs_phys_cpy
                0x08299170       0x60 build\gcc\obj/pluto/spiffs/spiffs_nucleus.o
                0x08299170                spiffs_phys_cpy
 .text.spiffs_obj_lu_find_entry_visitor
                0x082991d0      0x1dc build\gcc\obj/pluto/spiffs/spiffs_nucleus.o
                0x082991d0                spiffs_obj_lu_find_entry_visitor
 .text.spiffs_erase_block
                0x082993ac       0xc8 build\gcc\obj/pluto/spiffs/spiffs_nucleus.o
                0x082993ac                spiffs_erase_block
 .text.spiffs_obj_lu_scan
                0x08299474      0x158 build\gcc\obj/pluto/spiffs/spiffs_nucleus.o
                0x08299474                spiffs_obj_lu_scan
 .text.spiffs_obj_lu_find_id
                0x082995cc       0x38 build\gcc\obj/pluto/spiffs/spiffs_nucleus.o
                0x082995cc                spiffs_obj_lu_find_id
 .text.spiffs_obj_lu_find_free
                0x08299604       0x78 build\gcc\obj/pluto/spiffs/spiffs_nucleus.o
                0x08299604                spiffs_obj_lu_find_free
 .text.spiffs_obj_lu_find_id_and_span
                0x0829967c       0x8c build\gcc\obj/pluto/spiffs/spiffs_nucleus.o
                0x0829967c                spiffs_obj_lu_find_id_and_span
 .text.spiffs_page_allocate_data
                0x08299708      0x170 build\gcc\obj/pluto/spiffs/spiffs_nucleus.o
                0x08299708                spiffs_page_allocate_data
 .text.spiffs_page_delete
                0x08299878       0x88 build\gcc\obj/pluto/spiffs/spiffs_nucleus.o
                0x08299878                spiffs_page_delete
 .text.spiffs_page_move
                0x08299900      0x14c build\gcc\obj/pluto/spiffs/spiffs_nucleus.o
                0x08299900                spiffs_page_move
 .text.spiffs_cb_object_event
                0x08299a4c      0x160 build\gcc\obj/pluto/spiffs/spiffs_nucleus.o
                0x08299a4c                spiffs_cb_object_event
 .text.spiffs_object_create
                0x08299bac      0x168 build\gcc\obj/pluto/spiffs/spiffs_nucleus.o
                0x08299bac                spiffs_object_create
 .text.spiffs_object_update_index_hdr
                0x08299d14      0x10c build\gcc\obj/pluto/spiffs/spiffs_nucleus.o
                0x08299d14                spiffs_object_update_index_hdr
 .text.spiffs_object_open_by_page
                0x08299e20       0xd8 build\gcc\obj/pluto/spiffs/spiffs_nucleus.o
                0x08299e20                spiffs_object_open_by_page
 .text.spiffs_object_append
                0x08299ef8      0x5d0 build\gcc\obj/pluto/spiffs/spiffs_nucleus.o
                0x08299ef8                spiffs_object_append
 .text.spiffs_object_modify
                0x0829a4c8      0x4e0 build\gcc\obj/pluto/spiffs/spiffs_nucleus.o
                0x0829a4c8                spiffs_object_modify
 .text.spiffs_object_find_object_index_header_by_name
                0x0829a9a8       0x78 build\gcc\obj/pluto/spiffs/spiffs_nucleus.o
                0x0829a9a8                spiffs_object_find_object_index_header_by_name
 .text.spiffs_object_truncate
                0x0829aa20      0x544 build\gcc\obj/pluto/spiffs/spiffs_nucleus.o
                0x0829aa20                spiffs_object_truncate
 .text.spiffs_object_read
                0x0829af64      0x214 build\gcc\obj/pluto/spiffs/spiffs_nucleus.o
                0x0829af64                spiffs_object_read
 .text.spiffs_obj_lu_find_free_obj_id
                0x0829b178      0x180 build\gcc\obj/pluto/spiffs/spiffs_nucleus.o
                0x0829b178                spiffs_obj_lu_find_free_obj_id
 .text.spiffs_fd_find_new
                0x0829b2f8       0xe4 build\gcc\obj/pluto/spiffs/spiffs_nucleus.o
                0x0829b2f8                spiffs_fd_find_new
 .text.spiffs_fd_return
                0x0829b3dc       0x38 build\gcc\obj/pluto/spiffs/spiffs_nucleus.o
                0x0829b3dc                spiffs_fd_return
 .text.spiffs_fd_get
                0x0829b414       0x38 build\gcc\obj/pluto/spiffs/spiffs_nucleus.o
                0x0829b414                spiffs_fd_get
 .text.spiffs_fd_temporal_cache_rehash
                0x0829b44c       0x34 build\gcc\obj/pluto/spiffs/spiffs_nucleus.o
                0x0829b44c                spiffs_fd_temporal_cache_rehash
 .text.W25qxx_WriteReadOneByte
                0x0829b480       0x24 build\gcc\obj/pluto/spiffs/w25qxx.o
                0x0829b480                W25qxx_WriteReadOneByte
 .text.W25qxx_WriteOneByte
                0x0829b4a4       0x1c build\gcc\obj/pluto/spiffs/w25qxx.o
                0x0829b4a4                W25qxx_WriteOneByte
 .text.W25qxx_ReadID
                0x0829b4c0       0x64 build\gcc\obj/pluto/spiffs/w25qxx.o
                0x0829b4c0                W25qxx_ReadID
 .text.W25qxx_ReadUniqID
                0x0829b524       0x54 build\gcc\obj/pluto/spiffs/w25qxx.o
                0x0829b524                W25qxx_ReadUniqID
 .text.W25qxx_WriteEnable
                0x0829b578       0x28 build\gcc\obj/pluto/spiffs/w25qxx.o
                0x0829b578                W25qxx_WriteEnable
 .text.W25qxx_ReadStatusRegister
                0x0829b5a0       0xa8 build\gcc\obj/pluto/spiffs/w25qxx.o
                0x0829b5a0                W25qxx_ReadStatusRegister
 .text.W25qxx_BlockUnlock
                0x0829b648       0x6c build\gcc\obj/pluto/spiffs/w25qxx.o
                0x0829b648                W25qxx_BlockUnlock
 .text.W25qxx_WaitForWriteEnd
                0x0829b6b4       0x40 build\gcc\obj/pluto/spiffs/w25qxx.o
                0x0829b6b4                W25qxx_WaitForWriteEnd
 .text.W25qxx_Init
                0x0829b6f4       0xdc build\gcc\obj/pluto/spiffs/w25qxx.o
                0x0829b6f4                W25qxx_Init
 .text.W25qxx_EraseSector
                0x0829b7d0       0x98 build\gcc\obj/pluto/spiffs/w25qxx.o
                0x0829b7d0                W25qxx_EraseSector
 .text.W25qxx_WritePage
                0x0829b868       0xa8 build\gcc\obj/pluto/spiffs/w25qxx.o
                0x0829b868                W25qxx_WritePage
 .text.W25qxx_WriteSector
                0x0829b910       0x74 build\gcc\obj/pluto/spiffs/w25qxx.o
                0x0829b910                W25qxx_WriteSector
 .text.W25qxx_ReadPage
                0x0829b984       0x98 build\gcc\obj/pluto/spiffs/w25qxx.o
                0x0829b984                W25qxx_ReadPage
 .text.W25qxx_ReadSector
                0x0829ba1c       0x74 build\gcc\obj/pluto/spiffs/w25qxx.o
                0x0829ba1c                W25qxx_ReadSector
 .text.pluto_pre_init
                0x0829ba90      0x128 pluto/plutolib.a(pluto.o)
                0x0829ba90                pluto_pre_init
 .text.pluto_start_server
                0x0829bbb8       0x78 pluto/plutolib.a(pluto.o)
                0x0829bbb8                pluto_start_server
 .text.reset_timer
                0x0829bc30       0x10 pluto/plutolib.a(pluto_common.o)
 .text.pluto_get_seq
                0x0829bc40       0x10 pluto/plutolib.a(pluto_common.o)
                0x0829bc40                pluto_get_seq
 .text.pluto_set_busy_mask
                0x0829bc50       0x1c pluto/plutolib.a(pluto_common.o)
                0x0829bc50                pluto_set_busy_mask
 .text.pluto_clear_busy_mask
                0x0829bc6c       0x20 pluto/plutolib.a(pluto_common.o)
                0x0829bc6c                pluto_clear_busy_mask
 .text.pluto_set_server_url
                0x0829bc8c       0x14 pluto/plutolib.a(pluto_common.o)
                0x0829bc8c                pluto_set_server_url
 .text.pluto_get_time_zone
                0x0829bca0        0xc pluto/plutolib.a(pluto_common.o)
                0x0829bca0                pluto_get_time_zone
 .text.pluto_set_time_zone
                0x0829bcac        0xc pluto/plutolib.a(pluto_common.o)
                0x0829bcac                pluto_set_time_zone
 .text.pluto_get_chip_id
                0x0829bcb8        0x8 pluto/plutolib.a(pluto_common.o)
                0x0829bcb8                pluto_get_chip_id
 .text.pluto_set_chip_id
                0x0829bcc0       0x18 pluto/plutolib.a(pluto_common.o)
                0x0829bcc0                pluto_set_chip_id
 .text.pluto_get_local_key
                0x0829bcd8       0x40 pluto/plutolib.a(pluto_common.o)
                0x0829bcd8                pluto_get_local_key
 .text.pluto_get_default_key
                0x0829bd18        0x8 pluto/plutolib.a(pluto_common.o)
                0x0829bd18                pluto_get_default_key
 .text.pluto_get_comkey
                0x0829bd20        0x8 pluto/plutolib.a(pluto_common.o)
                0x0829bd20                pluto_get_comkey
 .text.pluto_get_guestkey
                0x0829bd28        0x8 pluto/plutolib.a(pluto_common.o)
                0x0829bd28                pluto_get_guestkey
 .text.pluto_set_adminkey
                0x0829bd30       0x18 pluto/plutolib.a(pluto_common.o)
                0x0829bd30                pluto_set_adminkey
 .text.pluto_set_comkey
                0x0829bd48       0x18 pluto/plutolib.a(pluto_common.o)
                0x0829bd48                pluto_set_comkey
 .text.pluto_set_guestkey
                0x0829bd60       0x18 pluto/plutolib.a(pluto_common.o)
                0x0829bd60                pluto_set_guestkey
 .text.pluto_set_read_lqi_cb
                0x0829bd78        0xc pluto/plutolib.a(pluto_common.o)
                0x0829bd78                pluto_set_read_lqi_cb
 .text.pluto_get_device_lqi
                0x0829bd84       0x64 pluto/plutolib.a(pluto_common.o)
                0x0829bd84                pluto_get_device_lqi
 .text.pluto_reset_system
                0x0829bde8       0x24 pluto/plutolib.a(pluto_common.o)
                0x0829bde8                pluto_reset_system
 .text.aps_set_listener
                0x0829be0c       0x10 pluto/plutolib.a(aps_common.o)
                0x0829be0c                aps_set_listener
 .text.aps_package_get_lenth
                0x0829be1c       0x10 pluto/plutolib.a(aps_common.o)
                0x0829be1c                aps_package_get_lenth
 .text.aps_package
                0x0829be2c       0x5c pluto/plutolib.a(aps_common.o)
                0x0829be2c                aps_package
 .text.aps_package_status
                0x0829be88       0x5c pluto/plutolib.a(aps_common.o)
                0x0829be88                aps_package_status
 .text.aps_fetch_package
                0x0829bee4       0x54 pluto/plutolib.a(aps_common.o)
                0x0829bee4                aps_fetch_package
 .text.aps_package_get_data
                0x0829bf38        0x4 pluto/plutolib.a(aps_common.o)
                0x0829bf38                aps_package_get_data
 .text.aps_send
                0x0829bf3c       0xcc pluto/plutolib.a(aps_output.o)
 .text.aps_output_task
                0x0829c008      0x184 pluto/plutolib.a(aps_output.o)
 .text.aps_req_send_command
                0x0829c18c       0xb4 pluto/plutolib.a(aps_output.o)
                0x0829c18c                aps_req_send_command
 .text.aps_req_send_status
                0x0829c240       0xbc pluto/plutolib.a(aps_output.o)
                0x0829c240                aps_req_send_status
 .text.aps_req_report_command
                0x0829c2fc      0x150 pluto/plutolib.a(aps_output.o)
                0x0829c2fc                aps_req_report_command
 .text.aps_req_report_status
                0x0829c44c       0xfc pluto/plutolib.a(aps_output.o)
                0x0829c44c                aps_req_report_status
 .text.aps_remove_all_message
                0x0829c548       0x5c pluto/plutolib.a(aps_output.o)
                0x0829c548                aps_remove_all_message
 .text.save_timer
                0x0829c5a4       0x38 pluto/plutolib.a(aps_user.o)
 .text.aps_save_user
                0x0829c5dc       0xf0 pluto/plutolib.a(aps_user.o)
                0x0829c5dc                aps_save_user
 .text.aps_start_fetch_user
                0x0829c6cc       0x34 pluto/plutolib.a(aps_user.o)
                0x0829c6cc                aps_start_fetch_user
 .text.aps_get_user
                0x0829c700       0x48 pluto/plutolib.a(aps_user.o)
                0x0829c700                aps_get_user
 .text.output_package
                0x0829c748       0xcc pluto/plutolib.a(lcl_output.o)
 .text.remove_package
                0x0829c814       0xa4 pluto/plutolib.a(lcl_output.o)
 .text.output_task
                0x0829c8b8      0x148 pluto/plutolib.a(lcl_output.o)
 .text.req_send_command.constprop.0
                0x0829ca00       0xd8 pluto/plutolib.a(lcl_output.o)
 .text.lcl_req_Send_data
                0x0829cad8       0x58 pluto/plutolib.a(lcl_output.o)
                0x0829cad8                lcl_req_Send_data
 .text.lcl_req_send_response
                0x0829cb30       0x28 pluto/plutolib.a(lcl_output.o)
                0x0829cb30                lcl_req_send_response
 .text.lcl_req_send_command
                0x0829cb58       0x44 pluto/plutolib.a(lcl_output.o)
                0x0829cb58                lcl_req_send_command
 .text.lcl_updata_parameter
                0x0829cb9c       0x50 pluto/plutolib.a(lcl_output.o)
                0x0829cb9c                lcl_updata_parameter
 .text.lcl_output_state_cb
                0x0829cbec       0x6c pluto/plutolib.a(lcl_output.o)
                0x0829cbec                lcl_output_state_cb
 .text.lcl_send_state_cb
                0x0829cc58       0x38 pluto/plutolib.a(lcl_output.o)
                0x0829cc58                lcl_send_state_cb
 .text.set_login_parametes
                0x0829cc90       0xd8 pluto/plutolib.a(login.o)
 .text.login_set_user_psw
                0x0829cd68       0x30 pluto/plutolib.a(login.o)
                0x0829cd68                login_set_user_psw
 .text.login_get_password
                0x0829cd98        0x8 pluto/plutolib.a(login.o)
                0x0829cd98                login_get_password
 .text.login_start
                0x0829cda0       0x30 pluto/plutolib.a(login.o)
                0x0829cda0                login_start
 .text.login_save_current_timestamp
                0x0829cdd0       0x14 pluto/plutolib.a(login.o)
                0x0829cdd0                login_save_current_timestamp
 .text.login_task
                0x0829cde4      0x168 pluto/plutolib.a(login.o)
 .text.login_get_current_timestamp
                0x0829cf4c       0x14 pluto/plutolib.a(login.o)
                0x0829cf4c                login_get_current_timestamp
 .text.login_set_state_change_cb
                0x0829cf60        0xc pluto/plutolib.a(login.o)
                0x0829cf60                login_set_state_change_cb
 .text.login_get_state
                0x0829cf6c       0x1c pluto/plutolib.a(login.o)
                0x0829cf6c                login_get_state
 .text.login_respone_cb
                0x0829cf88      0x168 pluto/plutolib.a(login.o)
                0x0829cf88                login_respone_cb
 .text.logout_respone_cb
                0x0829d0f0       0x7c pluto/plutolib.a(login.o)
                0x0829d0f0                logout_respone_cb
 .text.socket_init
                0x0829d16c       0x20 pluto/plutolib.a(nwk_common.o)
                0x0829d16c                socket_init
 .text.socket_udp_input
                0x0829d18c       0x44 pluto/plutolib.a(nwk_common.o)
                0x0829d18c                socket_udp_input
 .text.nwk_get_server_online_flag
                0x0829d1d0        0xc pluto/plutolib.a(nwk_nib.o)
                0x0829d1d0                nwk_get_server_online_flag
 .text.nwk_set_server_online_flag
                0x0829d1dc        0xc pluto/plutolib.a(nwk_nib.o)
                0x0829d1dc                nwk_set_server_online_flag
 .text.nwk_get_local_addr
                0x0829d1e8        0x8 pluto/plutolib.a(nwk_nib.o)
                0x0829d1e8                nwk_get_local_addr
 .text.nwk_set_local_addr
                0x0829d1f0       0x18 pluto/plutolib.a(nwk_nib.o)
                0x0829d1f0                nwk_set_local_addr
 .text.nwk_get_server_addr
                0x0829d208        0x8 pluto/plutolib.a(nwk_nib.o)
                0x0829d208                nwk_get_server_addr
 .text.nwk_get_broadcast_addr
                0x0829d210        0x8 pluto/plutolib.a(nwk_nib.o)
                0x0829d210                nwk_get_broadcast_addr
 .text.nwk_get_broadcast_ipv4
                0x0829d218        0x6 pluto/plutolib.a(nwk_nib.o)
                0x0829d218                nwk_get_broadcast_ipv4
 *fill*         0x0829d21e        0x2 
 .text.nwk_get_trans_protocol
                0x0829d220        0xc pluto/plutolib.a(nwk_nib.o)
                0x0829d220                nwk_get_trans_protocol
 .text.nwk_set_trans_protocol
                0x0829d22c       0x48 pluto/plutolib.a(nwk_nib.o)
                0x0829d22c                nwk_set_trans_protocol
 .text.nwk_get_server_ipv4
                0x0829d274        0xc pluto/plutolib.a(nwk_nib.o)
                0x0829d274                nwk_get_server_ipv4
 .text.nwk_set_server_ipv4
                0x0829d280        0xc pluto/plutolib.a(nwk_nib.o)
                0x0829d280                nwk_set_server_ipv4
 .text.nwk_get_server_port
                0x0829d28c       0x10 pluto/plutolib.a(nwk_nib.o)
                0x0829d28c                nwk_get_server_port
 .text.nwk_set_server_port
                0x0829d29c       0x10 pluto/plutolib.a(nwk_nib.o)
                0x0829d29c                nwk_set_server_port
 .text.nwk_get_local_ipv4
                0x0829d2ac        0xc pluto/plutolib.a(nwk_nib.o)
                0x0829d2ac                nwk_get_local_ipv4
 .text.nwk_set_local_ipv4
                0x0829d2b8        0xc pluto/plutolib.a(nwk_nib.o)
                0x0829d2b8                nwk_set_local_ipv4
 .text.nwk_get_local_port
                0x0829d2c4        0xc pluto/plutolib.a(nwk_nib.o)
                0x0829d2c4                nwk_get_local_port
 .text.nwk_set_local_port
                0x0829d2d0        0xc pluto/plutolib.a(nwk_nib.o)
                0x0829d2d0                nwk_set_local_port
 .text.nwk_get_route_flag
                0x0829d2dc        0xc pluto/plutolib.a(nwk_nib.o)
                0x0829d2dc                nwk_get_route_flag
 .text.nwk_set_route_flag
                0x0829d2e8        0xc pluto/plutolib.a(nwk_nib.o)
                0x0829d2e8                nwk_set_route_flag
 .text.nwk_get_beacon_time
                0x0829d2f4        0xc pluto/plutolib.a(nwk_nib.o)
                0x0829d2f4                nwk_get_beacon_time
 .text.nwk_set_beacon_time
                0x0829d300        0xc pluto/plutolib.a(nwk_nib.o)
                0x0829d300                nwk_set_beacon_time
 .text.package  0x0829d30c       0xac pluto/plutolib.a(nwk_output.o)
 .text.nwk_udp_send
                0x0829d3b8       0x34 pluto/plutolib.a(nwk_output.o)
 .text.output_package
                0x0829d3ec      0x150 pluto/plutolib.a(nwk_output.o)
 .text.nwk_remove_message
                0x0829d53c       0x90 pluto/plutolib.a(nwk_output.o)
 .text.output_task
                0x0829d5cc      0x240 pluto/plutolib.a(nwk_output.o)
 .text.nwk_req_send_data
                0x0829d80c       0xc8 pluto/plutolib.a(nwk_output.o)
                0x0829d80c                nwk_req_send_data
 .text.nwk_req_send_ack
                0x0829d8d4       0x24 pluto/plutolib.a(nwk_output.o)
                0x0829d8d4                nwk_req_send_ack
 .text.nwk_send_state_cb
                0x0829d8f8       0x10 pluto/plutolib.a(nwk_output.o)
                0x0829d8f8                nwk_send_state_cb
 .text.nwk_rsp_route
                0x0829d908       0x80 pluto/plutolib.a(nwk_output.o)
                0x0829d908                nwk_rsp_route
 .text.pkg_timout
                0x0829d988        0xc pluto/plutolib.a(nwk_pre_input.o)
 .text.nwk_pre_input
                0x0829d994      0x13c pluto/plutolib.a(nwk_pre_input.o)
                0x0829d994                nwk_pre_input
 .text.nwk_route_add
                0x0829dad0       0xb8 pluto/plutolib.a(nwk_route.o)
                0x0829dad0                nwk_route_add
 .text.nwk_route_remove
                0x0829db88       0x34 pluto/plutolib.a(nwk_route.o)
                0x0829db88                nwk_route_remove
 .text.nwk_package_limit_save
                0x0829dbbc       0xa0 pluto/plutolib.a(nwk_route.o)
                0x0829dbbc                nwk_package_limit_save
 .text.nwk_pakage_limit_get
                0x0829dc5c       0xa8 pluto/plutolib.a(nwk_route.o)
                0x0829dc5c                nwk_pakage_limit_get
 .text.osInit   0x0829dd04        0x4 pluto/plutolib.a(osCore.o)
                0x0829dd04                osInit
 .text._EnterCritical
                0x0829dd08       0x18 pluto/plutolib.a(osCore.o)
                0x0829dd08                _EnterCritical
 .text._ExitCritical
                0x0829dd20       0x14 pluto/plutolib.a(osCore.o)
                0x0829dd20                _ExitCritical
 .text.osSendMessage
                0x0829dd34       0x5c pluto/plutolib.a(osCore.o)
                0x0829dd34                osSendMessage
 .text.osRun    0x0829dd90       0x64 pluto/plutolib.a(osCore.o)
                0x0829dd90                osRun
 .text.proc_pluto_task
                0x0829ddf4       0x6c pluto/plutolib.a(osCore.o)
                0x0829ddf4                proc_pluto_task
 .text.osRand   0x0829de60       0x38 pluto/plutolib.a(osLibc.o)
                0x0829de60                osRand
 .text.osAtoB   0x0829de98       0x64 pluto/plutolib.a(osLibc.o)
                0x0829de98                osAtoB
 .text.osMemcpy
                0x0829defc       0x1a pluto/plutolib.a(osLibc.o)
                0x0829defc                osMemcpy
 .text.osMemcmp
                0x0829df16       0x24 pluto/plutolib.a(osLibc.o)
                0x0829df16                osMemcmp
 .text.osMemset
                0x0829df3a       0x12 pluto/plutolib.a(osLibc.o)
                0x0829df3a                osMemset
 .text.osMemchkz
                0x0829df4c       0x16 pluto/plutolib.a(osLibc.o)
                0x0829df4c                osMemchkz
 .text.osStrcpy
                0x0829df62       0x12 pluto/plutolib.a(osLibc.o)
                0x0829df62                osStrcpy
 .text.osStrcmp
                0x0829df74       0x34 pluto/plutolib.a(osLibc.o)
                0x0829df74                osStrcmp
 .text.osStrncmp
                0x0829dfa8       0x30 pluto/plutolib.a(osLibc.o)
                0x0829dfa8                osStrncmp
 .text.osStrlen
                0x0829dfd8       0x10 pluto/plutolib.a(osLibc.o)
                0x0829dfd8                osStrlen
 .text.osToupper
                0x0829dfe8        0xc pluto/plutolib.a(osLibc.o)
                0x0829dfe8                osToupper
 .text.osBtoU32
                0x0829dff4       0x16 pluto/plutolib.a(osLibc.o)
                0x0829dff4                osBtoU32
 .text.osBtoU16
                0x0829e00a        0xa pluto/plutolib.a(osLibc.o)
                0x0829e00a                osBtoU16
 .text.osU32toB
                0x0829e014       0x10 pluto/plutolib.a(osLibc.o)
                0x0829e014                osU32toB
 .text.osU16toB
                0x0829e024        0x8 pluto/plutolib.a(osLibc.o)
                0x0829e024                osU16toB
 .text.osBtoStr
                0x0829e02c       0x28 pluto/plutolib.a(osLibc.o)
                0x0829e02c                osBtoStr
 .text.osStrchr
                0x0829e054       0x1a pluto/plutolib.a(osLibc.o)
                0x0829e054                osStrchr
 .text.osStrstr
                0x0829e06e       0x36 pluto/plutolib.a(osLibc.o)
                0x0829e06e                osStrstr
 .text.osCaseStrstr
                0x0829e0a4       0x5c pluto/plutolib.a(osLibc.o)
                0x0829e0a4                osCaseStrstr
 .text.os_addr_inet
                0x0829e100       0x28 pluto/plutolib.a(osLibc.o)
                0x0829e100                os_addr_inet
 .text.osHexStrtoB
                0x0829e128       0x7c pluto/plutolib.a(osLibc.o)
                0x0829e128                osHexStrtoB
 .text.osBtoHexStr
                0x0829e1a4       0x54 pluto/plutolib.a(osLibc.o)
                0x0829e1a4                osBtoHexStr
 .text.osAtoI   0x0829e1f8       0x3e pluto/plutolib.a(osLibc.o)
                0x0829e1f8                osAtoI
 *fill*         0x0829e236        0x2 
 .text.os_inet_addr
                0x0829e238       0x4c pluto/plutolib.a(osLibc.o)
                0x0829e238                os_inet_addr
 .text.osFtoA   0x0829e284       0xe8 pluto/plutolib.a(osLibc.o)
                0x0829e284                osFtoA
 .text.osAtoF   0x0829e36c       0x7c pluto/plutolib.a(osLibc.o)
                0x0829e36c                osAtoF
 .text.osSubAbs
                0x0829e3e8        0xe pluto/plutolib.a(osLibc.o)
                0x0829e3e8                osSubAbs
 .text.osSubLoop32
                0x0829e3f6        0xe pluto/plutolib.a(osLibc.o)
                0x0829e3f6                osSubLoop32
 .text.osGetCheckSum16
                0x0829e404       0x1a pluto/plutolib.a(osLibc.o)
                0x0829e404                osGetCheckSum16
 *fill*         0x0829e41e        0x2 
 .text.osGenRandomArrary
                0x0829e420       0x1c pluto/plutolib.a(osLibc.o)
                0x0829e420                osGenRandomArrary
 .text.osCRC16  0x0829e43c       0x24 pluto/plutolib.a(osLibc.o)
                0x0829e43c                osCRC16
 .text.osTimerTask
                0x0829e460       0x7c pluto/plutolib.a(osTimer.o)
 .text.osGetmsTimestamp
                0x0829e4dc        0xc pluto/plutolib.a(osTimer.o)
                0x0829e4dc                osGetmsTimestamp
 .text.osGetUnixTime
                0x0829e4e8        0xc pluto/plutolib.a(osTimer.o)
                0x0829e4e8                osGetUnixTime
 .text.osSetUnixTime
                0x0829e4f4        0xc pluto/plutolib.a(osTimer.o)
                0x0829e4f4                osSetUnixTime
 .text.osTickUpdata
                0x0829e500       0x50 pluto/plutolib.a(osTimer.o)
                0x0829e500                osTickUpdata
 .text.osAddTimer
                0x0829e550       0x6c pluto/plutolib.a(osTimer.o)
                0x0829e550                osAddTimer
 .text.osStartTimer
                0x0829e5bc       0x1c pluto/plutolib.a(osTimer.o)
                0x0829e5bc                osStartTimer
 .text.osStartReloadTimer
                0x0829e5d8       0x20 pluto/plutolib.a(osTimer.o)
                0x0829e5d8                osStartReloadTimer
 .text.osDeleteTimer
                0x0829e5f8       0x20 pluto/plutolib.a(osTimer.o)
                0x0829e5f8                osDeleteTimer
 .text.osLocalToUnix
                0x0829e618       0xe0 pluto/plutolib.a(osTimer.o)
                0x0829e618                osLocalToUnix
 .text.osUnixtoLocal
                0x0829e6f8      0x1b4 pluto/plutolib.a(osTimer.o)
                0x0829e6f8                osUnixtoLocal
 .text.os_dbg_init
                0x0829e8ac        0xc pluto/plutolib.a(osTrace.o)
                0x0829e8ac                os_dbg_init
 .text.os_printf
                0x0829e8b8       0x44 pluto/plutolib.a(osTrace.o)
                0x0829e8b8                os_printf
 .text.osPrint2b
                0x0829e8fc       0x58 pluto/plutolib.a(osTrace.o)
                0x0829e8fc                osPrint2b
 .text._out_buffer
                0x0829e954        0x8 pluto/plutolib.a(printf.o)
 .text._out_null
                0x0829e95c        0x2 pluto/plutolib.a(printf.o)
 .text._ntoa_format
                0x0829e95e      0x138 pluto/plutolib.a(printf.o)
 *fill*         0x0829ea96        0x2 
 .text._ntoa_long
                0x0829ea98       0x90 pluto/plutolib.a(printf.o)
 .text._ntoa_long_long
                0x0829eb28       0xb0 pluto/plutolib.a(printf.o)
 .text._vsnprintf
                0x0829ebd8      0x7e0 pluto/plutolib.a(printf.o)
 .text.sprintf_
                0x0829f3b8       0x30 pluto/plutolib.a(printf.o)
                0x0829f3b8                sprintf_
 .text.vsnprintf_
                0x0829f3e8       0x24 pluto/plutolib.a(printf.o)
                0x0829f3e8                vsnprintf_
 .text.load_device_describe
                0x0829f40c       0x30 pluto/plutolib.a(pdo_describe.o)
 .text.save_device_describe
                0x0829f43c      0x2b0 pluto/plutolib.a(pdo_describe.o)
 .text.pdo_report_device_info
                0x0829f6ec      0x188 pluto/plutolib.a(pdo_describe.o)
 .text.pdo_report_port
                0x0829f874       0x5c pluto/plutolib.a(pdo_describe.o)
 .text.load_port_list
                0x0829f8d0       0x60 pluto/plutolib.a(pdo_describe.o)
 .text.get_port_describe
                0x0829f930       0x50 pluto/plutolib.a(pdo_describe.o)
 .text.delete_port
                0x0829f980       0x58 pluto/plutolib.a(pdo_describe.o)
 .text.port_list_timer
                0x0829f9d8       0x50 pluto/plutolib.a(pdo_describe.o)
 .text.updata_key_timer
                0x0829fa28       0x70 pluto/plutolib.a(pdo_describe.o)
 .text.pdo_device_describe_handler
                0x0829fa98      0x228 pluto/plutolib.a(pdo_describe.o)
                0x0829fa98                pdo_device_describe_handler
 .text.pdo_read_port_num
                0x0829fcc0       0x1c pluto/plutolib.a(pdo_describe.o)
                0x0829fcc0                pdo_read_port_num
 .text.pdo_read_port_list
                0x0829fcdc       0x60 pluto/plutolib.a(pdo_describe.o)
                0x0829fcdc                pdo_read_port_list
 .text.pdo_port_list_handler
                0x0829fd3c       0x70 pluto/plutolib.a(pdo_describe.o)
                0x0829fd3c                pdo_port_list_handler
 .text.pdo_read_port_describe
                0x0829fdac       0x2c pluto/plutolib.a(pdo_describe.o)
                0x0829fdac                pdo_read_port_describe
 .text.pdo_delete_port
                0x0829fdd8       0x44 pluto/plutolib.a(pdo_describe.o)
                0x0829fdd8                pdo_delete_port
 .text.pdo_register_port
                0x0829fe1c      0x1c0 pluto/plutolib.a(pdo_describe.o)
                0x0829fe1c                pdo_register_port
 .text.pdo_update_port_describe
                0x0829ffdc       0xa8 pluto/plutolib.a(pdo_describe.o)
                0x0829ffdc                pdo_update_port_describe
 .text.pdo_port_describe_handler
                0x082a0084       0xf4 pluto/plutolib.a(pdo_describe.o)
                0x082a0084                pdo_port_describe_handler
 .text.pluto_update_guest_key
                0x082a0178       0x2c pluto/plutolib.a(pdo_describe.o)
                0x082a0178                pluto_update_guest_key
 .text.restore_device_describe
                0x082a01a4      0x1a8 pluto/plutolib.a(pdo_describe.o)
 .text.pdo_save_obj_valueint
                0x082a034c       0x94 pluto/plutolib.a(pdo_describe.o)
                0x082a034c                pdo_save_obj_valueint
 .text.pdo_set_device_describe
                0x082a03e0      0x1f4 pluto/plutolib.a(pdo_describe.o)
                0x082a03e0                pdo_set_device_describe
 .text.get_key_structure
                0x082a05d4       0x30 pluto/plutolib.a(pdo_keys.o)
 .text.pdo_add_device_key
                0x082a0604       0x74 pluto/plutolib.a(pdo_keys.o)
                0x082a0604                pdo_add_device_key
 .text.pdo_get_devcie_key
                0x082a0678       0x10 pluto/plutolib.a(pdo_keys.o)
                0x082a0678                pdo_get_devcie_key
 .text.pdo_set_version
                0x082a0688        0xc pluto/plutolib.a(pdo_nib.o)
                0x082a0688                pdo_set_version
 .text.pdo_get_local_lock
                0x082a0694        0xc pluto/plutolib.a(pdo_nib.o)
                0x082a0694                pdo_get_local_lock
 .text.pdo_set_local_lock
                0x082a06a0        0xc pluto/plutolib.a(pdo_nib.o)
                0x082a06a0                pdo_set_local_lock
 .text.pdo_get_remote_lock
                0x082a06ac        0xc pluto/plutolib.a(pdo_nib.o)
                0x082a06ac                pdo_get_remote_lock
 .text.pdo_set_remote_lock
                0x082a06b8        0xc pluto/plutolib.a(pdo_nib.o)
                0x082a06b8                pdo_set_remote_lock
 .text.pdo_get_guest_lock
                0x082a06c4        0xc pluto/plutolib.a(pdo_nib.o)
                0x082a06c4                pdo_get_guest_lock
 .text.pdo_set_guest_lock
                0x082a06d0        0xc pluto/plutolib.a(pdo_nib.o)
                0x082a06d0                pdo_set_guest_lock
 .text.pdo_get_share_lock
                0x082a06dc        0xc pluto/plutolib.a(pdo_nib.o)
                0x082a06dc                pdo_get_share_lock
 .text.pdo_set_share_lock
                0x082a06e8        0xc pluto/plutolib.a(pdo_nib.o)
                0x082a06e8                pdo_set_share_lock
 .text.pdo_get_encrypt_flag
                0x082a06f4        0xc pluto/plutolib.a(pdo_nib.o)
                0x082a06f4                pdo_get_encrypt_flag
 .text.pdo_set_encrypt_flag
                0x082a0700        0xc pluto/plutolib.a(pdo_nib.o)
                0x082a0700                pdo_set_encrypt_flag
 .text.pdo_get_history_record_flag
                0x082a070c        0xc pluto/plutolib.a(pdo_nib.o)
                0x082a070c                pdo_get_history_record_flag
 .text.pdo_set_history_record_flag
                0x082a0718        0xc pluto/plutolib.a(pdo_nib.o)
                0x082a0718                pdo_set_history_record_flag
 .text.pdo_get_specail_service_addr
                0x082a0724       0x14 pluto/plutolib.a(pdo_nib.o)
                0x082a0724                pdo_get_specail_service_addr
 .text.pdo_set_special_service_addr
                0x082a0738       0x24 pluto/plutolib.a(pdo_nib.o)
                0x082a0738                pdo_set_special_service_addr
 .text.pdo_get_limit_level
                0x082a075c        0xc pluto/plutolib.a(pdo_nib.o)
                0x082a075c                pdo_get_limit_level
 .text.pdo_set_limit_level
                0x082a0768        0xc pluto/plutolib.a(pdo_nib.o)
                0x082a0768                pdo_set_limit_level
 .text.load_record
                0x082a0774       0x30 pluto/plutolib.a(pdo_record.o)
 .text.save_record
                0x082a07a4      0x148 pluto/plutolib.a(pdo_record.o)
 .text.save_task
                0x082a08ec       0x68 pluto/plutolib.a(pdo_record.o)
 .text.pdo_alarm_record_handler
                0x082a0954       0xe8 pluto/plutolib.a(pdo_record.o)
                0x082a0954                pdo_alarm_record_handler
 .text.pdo_history_record_handler
                0x082a0a3c       0xf0 pluto/plutolib.a(pdo_record.o)
                0x082a0a3c                pdo_history_record_handler
 .text.pdo_save_alarm_record
                0x082a0b2c       0x5c pluto/plutolib.a(pdo_record.o)
                0x082a0b2c                pdo_save_alarm_record
 .text.pdo_save_history_record
                0x082a0b88       0x68 pluto/plutolib.a(pdo_record.o)
                0x082a0b88                pdo_save_history_record
 .text.scene_set_state
                0x082a0bf0       0x84 pluto/plutolib.a(pdo_scene.o)
 .text.pdo_scene_alarm
                0x082a0c74       0x4c pluto/plutolib.a(pdo_scene.o)
                0x082a0c74                pdo_scene_alarm
 .text.pdo_scene_run
                0x082a0cc0       0x30 pluto/plutolib.a(pdo_scene.o)
                0x082a0cc0                pdo_scene_run
 .text.pdo_scene_init
                0x082a0cf0       0x34 pluto/plutolib.a(pdo_scene.o)
                0x082a0cf0                pdo_scene_init
 .text.pdo_scene_handler
                0x082a0d24      0x388 pluto/plutolib.a(pdo_scene.o)
                0x082a0d24                pdo_scene_handler
 .text.read_uint32
                0x082a10ac       0x10 pluto/plutolib.a(pdo_server.o)
 .text.read_string
                0x082a10bc       0x3c pluto/plutolib.a(pdo_server.o)
 .text.read_bytes
                0x082a10f8       0x3c pluto/plutolib.a(pdo_server.o)
 .text.pdo_server_message_handler
                0x082a1134      0x1a4 pluto/plutolib.a(pdo_server.o)
                0x082a1134                pdo_server_message_handler
 .text.pdo_load_server_info
                0x082a12d8       0xe0 pluto/plutolib.a(pdo_server.o)
                0x082a12d8                pdo_load_server_info
 .text.pdo_update_handler
                0x082a13b8       0xf8 pluto/plutolib.a(pdo_update.o)
                0x082a13b8                pdo_update_handler
 .text.pdo_set_bin_name
                0x082a14b0        0x4 pluto/plutolib.a(pdo_update.o)
                0x082a14b0                pdo_set_bin_name
 .text.Scene_GetFreeHandler
                0x082a14b4       0x2c pluto/plutolib.a(scene.o)
 .text.Scene_FindTask
                0x082a14e0       0x28 pluto/plutolib.a(scene.o)
                0x082a14e0                Scene_FindTask
 .text.Scene_CreateTask
                0x082a1508      0x198 pluto/plutolib.a(scene.o)
                0x082a1508                Scene_CreateTask
 .text.Scene_CheckExist
                0x082a16a0       0x1c pluto/plutolib.a(scene.o)
                0x082a16a0                Scene_CheckExist
 .text.Scene_SendParameter
                0x082a16bc        0x2 pluto/plutolib.a(scene.o)
                0x082a16bc                Scene_SendParameter
 *fill*         0x082a16be        0x2 
 .text.Scene_DelTask
                0x082a16c0        0xc pluto/plutolib.a(scene.o)
                0x082a16c0                Scene_DelTask
 .text.Scene_PreCheckReason
                0x082a16cc       0x2c pluto/plutolib.a(scene_core.o)
 .text.Scene_GetTaskBlock
                0x082a16f8        0xc pluto/plutolib.a(scene_core.o)
                0x082a16f8                Scene_GetTaskBlock
 .text.Scene_RemoveTask
                0x082a1704       0x70 pluto/plutolib.a(scene_core.o)
                0x082a1704                Scene_RemoveTask
 .text.Scene_ReadTaskStateByName
                0x082a1774       0x2c pluto/plutolib.a(scene_core.o)
                0x082a1774                Scene_ReadTaskStateByName
 .text.Scene_SendEvent
                0x082a17a0       0x80 pluto/plutolib.a(scene_core.o)
                0x082a17a0                Scene_SendEvent
 .text.Scene_InsetTask
                0x082a1820       0x2c pluto/plutolib.a(scene_core.o)
                0x082a1820                Scene_InsetTask
 .text.Scene_SetTaskState
                0x082a184c       0x84 pluto/plutolib.a(scene_core.o)
                0x082a184c                Scene_SetTaskState
 .text.Scene_TaskJoin
                0x082a18d0       0x78 pluto/plutolib.a(scene_core.o)
                0x082a18d0                Scene_TaskJoin
 .text.Scene_SetTaskStateWithArg
                0x082a1948       0xa4 pluto/plutolib.a(scene_core.o)
                0x082a1948                Scene_SetTaskStateWithArg
 .text.Scene_Task
                0x082a19ec      0x5c4 pluto/plutolib.a(scene_core.o)
                0x082a19ec                Scene_Task
 .text.Scene_Send
                0x082a1fb0      0x25c pluto/plutolib.a(scene_do.o)
                0x082a1fb0                Scene_Send
 .text.Scene_GetRegBySymbol
                0x082a220c       0x40 pluto/plutolib.a(scene_do.o)
                0x082a220c                Scene_GetRegBySymbol
 .text.Scene_Do
                0x082a224c      0x2b8 pluto/plutolib.a(scene_do.o)
                0x082a224c                Scene_Do
 .text.Scene_ISSTRING
                0x082a2504       0x20 pluto/plutolib.a(scene_lib.o)
                0x082a2504                Scene_ISSTRING
 .text.Scene_ISNUM
                0x082a2524        0xc pluto/plutolib.a(scene_lib.o)
                0x082a2524                Scene_ISNUM
 .text.Scene_ISHEXNUM
                0x082a2530       0x1c pluto/plutolib.a(scene_lib.o)
                0x082a2530                Scene_ISHEXNUM
 .text.Scene_GetItemByOffset
                0x082a254c       0x36 pluto/plutolib.a(scene_lib.o)
                0x082a254c                Scene_GetItemByOffset
 *fill*         0x082a2582        0x2 
 .text.Scene_GetStringLen
                0x082a2584       0x20 pluto/plutolib.a(scene_lib.o)
                0x082a2584                Scene_GetStringLen
 .text.Scene_GetBracketsLen
                0x082a25a4       0x14 pluto/plutolib.a(scene_lib.o)
                0x082a25a4                Scene_GetBracketsLen
 .text.Scene_GetString
                0x082a25b8       0x1c pluto/plutolib.a(scene_lib.o)
                0x082a25b8                Scene_GetString
 .text.Scene_StringString
                0x082a25d4       0x36 pluto/plutolib.a(scene_lib.o)
                0x082a25d4                Scene_StringString
 .text.Scene_SkipSpace
                0x082a260a       0x1c pluto/plutolib.a(scene_lib.o)
                0x082a260a                Scene_SkipSpace
 .text.Scene_GetSymbol
                0x082a2626       0x36 pluto/plutolib.a(scene_lib.o)
                0x082a2626                Scene_GetSymbol
 .text.Scene_HexStrtoU32
                0x082a265c       0x2c pluto/plutolib.a(scene_lib.o)
                0x082a265c                Scene_HexStrtoU32
 .text.Scene_ParseDeviceInfo
                0x082a2688      0x170 pluto/plutolib.a(scene_lib.o)
                0x082a2688                Scene_ParseDeviceInfo
 .text.Scene_InputDevMsg
                0x082a27f8       0xdc pluto/plutolib.a(scene_message.o)
                0x082a27f8                Scene_InputDevMsg
 .text.Scene_FetchMsg
                0x082a28d4       0x28 pluto/plutolib.a(scene_message.o)
                0x082a28d4                Scene_FetchMsg
 .text.Scene_DeletedAllMsg
                0x082a28fc       0x20 pluto/plutolib.a(scene_message.o)
                0x082a28fc                Scene_DeletedAllMsg
 .text.Scene_CompareInt
                0x082a291c       0x56 pluto/plutolib.a(scene_reason.o)
                0x082a291c                Scene_CompareInt
 .text.Scene_CompareFloat
                0x082a2972       0x6a pluto/plutolib.a(scene_reason.o)
                0x082a2972                Scene_CompareFloat
 .text.Scene_CompareTimer
                0x082a29dc      0x128 pluto/plutolib.a(scene_reason.o)
                0x082a29dc                Scene_CompareTimer
 .text.Scene_CompareDev
                0x082a2b04      0x210 pluto/plutolib.a(scene_reason.o)
                0x082a2b04                Scene_CompareDev
 .text.Scene_CheckReasons
                0x082a2d14      0x1ec pluto/plutolib.a(scene_reason.o)
                0x082a2d14                Scene_CheckReasons
 .text.pluto_get_data_type
                0x082a2f00       0xf4 pluto/plutolib.a(aID.o)
                0x082a2f00                pluto_get_data_type
 .text.input_task
                0x082a2ff4      0x258 pluto/plutolib.a(aps_input.o)
 .text.aps_input
                0x082a324c       0x8c pluto/plutolib.a(aps_input.o)
                0x082a324c                aps_input
 .text.aps_send_status_cb
                0x082a32d8       0x90 pluto/plutolib.a(aps_input.o)
                0x082a32d8                aps_send_status_cb
 .text.lcl_expand_data_length
                0x082a3368       0x14 pluto/plutolib.a(lcl_common.o)
                0x082a3368                lcl_expand_data_length
 .text.lcl_calculate_package_length
                0x082a337c       0x10 pluto/plutolib.a(lcl_common.o)
                0x082a337c                lcl_calculate_package_length
 .text.lcl_package
                0x082a338c       0x64 pluto/plutolib.a(lcl_common.o)
                0x082a338c                lcl_package
 .text.lcl_get_seq
                0x082a33f0       0x10 pluto/plutolib.a(lcl_common.o)
                0x082a33f0                lcl_get_seq
 .text.gen_key  0x082a3400       0x44 pluto/plutolib.a(lcl_crypto.o)
 .text.lcl_encrypt_data
                0x082a3444       0x44 pluto/plutolib.a(lcl_crypto.o)
                0x082a3444                lcl_encrypt_data
 .text.lcl_decrypt
                0x082a3488       0xb8 pluto/plutolib.a(lcl_crypto.o)
                0x082a3488                lcl_decrypt
 .text.block_count
                0x082a3540       0x40 pluto/plutolib.a(nwk_input.o)
 .text.block_to_clear_timer
                0x082a3580       0x1c pluto/plutolib.a(nwk_input.o)
 .text.detach_block
                0x082a359c       0x68 pluto/plutolib.a(nwk_input.o)
 .text.nwk_check_repeat
                0x082a3604      0x108 pluto/plutolib.a(nwk_input.o)
 .text.proccess_message_task
                0x082a370c      0x160 pluto/plutolib.a(nwk_input.o)
 .text.nwk_input
                0x082a386c      0x408 pluto/plutolib.a(nwk_input.o)
                0x082a386c                nwk_input
 .text.nwk_add_to_repeat_table
                0x082a3c74        0xc pluto/plutolib.a(nwk_input.o)
                0x082a3c74                nwk_add_to_repeat_table
 .text.deivce_annouce_task
                0x082a3c80       0xa4 pluto/plutolib.a(pdo.o)
 .text.pdo_command_handle
                0x082a3d24      0x288 pluto/plutolib.a(pdo.o)
                0x082a3d24                pdo_command_handle
 .text.pdo_get_port_permit_join_flag
                0x082a3fac       0x10 pluto/plutolib.a(pdo.o)
                0x082a3fac                pdo_get_port_permit_join_flag
 .text.pdo_get_name_and_data_length
                0x082a3fbc       0x20 pluto/plutolib.a(pdo_file_system.o)
                0x082a3fbc                pdo_get_name_and_data_length
 .text.pdo_get_file_name
                0x082a3fdc       0x38 pluto/plutolib.a(pdo_file_system.o)
                0x082a3fdc                pdo_get_file_name
 .text.pdo_get_sub_string
                0x082a4014       0x48 pluto/plutolib.a(pdo_file_system.o)
                0x082a4014                pdo_get_sub_string
 .text.pdo_package_file
                0x082a405c       0x8c pluto/plutolib.a(pdo_file_system.o)
                0x082a405c                pdo_package_file
 .text.pdo_send_file_response
                0x082a40e8       0x50 pluto/plutolib.a(pdo_file_system.o)
                0x082a40e8                pdo_send_file_response
 .text.read_file_and_send
                0x082a4138       0x8c pluto/plutolib.a(pdo_file_system.o)
 .text.read_file_task
                0x082a41c4       0x88 pluto/plutolib.a(pdo_file_system.o)
 .text.pdo_file_system_handler
                0x082a424c      0x3a8 pluto/plutolib.a(pdo_file_system.o)
                0x082a424c                pdo_file_system_handler
 .text.read_table
                0x082a45f4       0x30 pluto/plutolib.a(pdo_utb.o)
 .text.utb_check_enable_port
                0x082a4624       0xf4 pluto/plutolib.a(pdo_utb.o)
                0x082a4624                utb_check_enable_port
 .text.utb_message_handler
                0x082a4718      0x200 pluto/plutolib.a(pdo_utb.o)
                0x082a4718                utb_message_handler
 .text.KeyExpansion
                0x082a4918       0x78 pluto/plutolib.a(lcl_aes.o)
 .text.AddRoundKey
                0x082a4990       0x24 pluto/plutolib.a(lcl_aes.o)
 .text.xtime    0x082a49b4       0x12 pluto/plutolib.a(lcl_aes.o)
 *fill*         0x082a49c6        0x2 
 .text.Cipher   0x082a49c8      0x154 pluto/plutolib.a(lcl_aes.o)
 .text.InvCipher
                0x082a4b1c      0x1f8 pluto/plutolib.a(lcl_aes.o)
 .text.AES_init_ctx_iv
                0x082a4d14       0x20 pluto/plutolib.a(lcl_aes.o)
                0x082a4d14                AES_init_ctx_iv
 .text.AES_CBC_encrypt_buffer
                0x082a4d34       0x4c pluto/plutolib.a(lcl_aes.o)
                0x082a4d34                AES_CBC_encrypt_buffer
 .text.AES_CBC_decrypt_buffer
                0x082a4d80       0x54 pluto/plutolib.a(lcl_aes.o)
                0x082a4d80                AES_CBC_decrypt_buffer
 .text.message_proccess
                0x082a4dd4      0x2fc pluto/plutolib.a(lcl_input.o)
 .text.lcl_input_message
                0x082a50d0       0x60 pluto/plutolib.a(lcl_input.o)
                0x082a50d0                lcl_input_message
 .text.Ql_GPIO_Init
                0x082a5130       0x44 libs/gcc/app_start.lib(gpio.o)
                0x082a5130                Ql_GPIO_Init
 .text.Ql_GPIO_SetLevel
                0x082a5174       0x38 libs/gcc/app_start.lib(gpio.o)
                0x082a5174                Ql_GPIO_SetLevel
 .text.Ql_GPIO_GetLevel
                0x082a51ac       0x34 libs/gcc/app_start.lib(gpio.o)
                0x082a51ac                Ql_GPIO_GetLevel
 .text.Ql_GPIO_SetDirection
                0x082a51e0       0x38 libs/gcc/app_start.lib(gpio.o)
                0x082a51e0                Ql_GPIO_SetDirection
 .text.Ql_MEM_Alloc
                0x082a5218       0x44 libs/gcc/app_start.lib(memory.o)
                0x082a5218                Ql_MEM_Alloc
 .text.Ql_MEM_Free
                0x082a525c       0x40 libs/gcc/app_start.lib(memory.o)
                0x082a525c                Ql_MEM_Free
 .text.ql_InitVFunc
                0x082a529c       0x7c libs/gcc/app_start.lib(ql_main.o)
                0x082a529c                ql_InitVFunc
 .text.ocpu_main
                0x082a5318       0x68 libs/gcc/app_start.lib(ql_main.o)
                0x082a5318                ocpu_main
 .text.proc_reserved2
                0x082a5380       0x40 libs/gcc/app_start.lib(ril_aux.o)
                0x082a5380                proc_reserved2
 .text.ril_StopATTimer
                0x082a53c0       0x1c libs/gcc/app_start.lib(ril_main.o)
 .text.Callback_OnATTimer
                0x082a53dc       0x34 libs/gcc/app_start.lib(ril_main.o)
 .text.Ql_RIL_Initialize
                0x082a5410       0x90 libs/gcc/app_start.lib(ril_main.o)
                0x082a5410                Ql_RIL_Initialize
 .text.Ql_RIL_SendATCmd
                0x082a54a0      0x1c8 libs/gcc/app_start.lib(ril_main.o)
                0x082a54a0                Ql_RIL_SendATCmd
 .text.str_seacher_with
                0x082a5668       0x58 libs/gcc/app_start.lib(ril_main.o)
                0x082a5668                str_seacher_with
 .text.proc_reserved1
                0x082a56c0      0x340 libs/gcc/app_start.lib(ril_main.o)
                0x082a56c0                proc_reserved1
 .text.Ql_SPI_Init
                0x082a5a00       0x50 libs/gcc/app_start.lib(spi.o)
                0x082a5a00                Ql_SPI_Init
 .text.Ql_SPI_Config
                0x082a5a50       0x48 libs/gcc/app_start.lib(spi.o)
                0x082a5a50                Ql_SPI_Config
 .text.Ql_SPI_Write
                0x082a5a98       0x3c libs/gcc/app_start.lib(spi.o)
                0x082a5a98                Ql_SPI_Write
 .text.Ql_SPI_WriteRead
                0x082a5ad4       0x48 libs/gcc/app_start.lib(spi.o)
                0x082a5ad4                Ql_SPI_WriteRead
 .text.Ql_strcpy
                0x082a5b1c       0x58 libs/gcc/app_start.lib(stdlib_func.o)
                0x082a5b1c                Ql_strcpy
 .text.Ql_strncpy
                0x082a5b74       0x50 libs/gcc/app_start.lib(stdlib_func.o)
                0x082a5b74                Ql_strncpy
 .text.Ql_strlen
                0x082a5bc4       0x44 libs/gcc/app_start.lib(stdlib_func.o)
                0x082a5bc4                Ql_strlen
 .text.Ql_strcmp
                0x082a5c08       0x38 libs/gcc/app_start.lib(stdlib_func.o)
                0x082a5c08                Ql_strcmp
 .text.Ql_strncmp
                0x082a5c40       0x3c libs/gcc/app_start.lib(stdlib_func.o)
                0x082a5c40                Ql_strncmp
 .text.Ql_memset
                0x082a5c7c       0x50 libs/gcc/app_start.lib(stdlib_func.o)
                0x082a5c7c                Ql_memset
 .text.Ql_memcpy
                0x082a5ccc       0x50 libs/gcc/app_start.lib(stdlib_func.o)
                0x082a5ccc                Ql_memcpy
 .text.Ql_memcmp
                0x082a5d1c       0x3c libs/gcc/app_start.lib(stdlib_func.o)
                0x082a5d1c                Ql_memcmp
 .text.Ql_strstr
                0x082a5d58       0x48 libs/gcc/app_start.lib(stdlib_func.o)
                0x082a5d58                Ql_strstr
 .text.Ql_strchr
                0x082a5da0       0x48 libs/gcc/app_start.lib(stdlib_func.o)
                0x082a5da0                Ql_strchr
 .text.Ql_toupper
                0x082a5de8        0x4 libs/gcc/app_start.lib(stdlib_func.o)
                0x082a5de8                Ql_toupper
 .text.Ql_atoi  0x082a5dec       0x4e libs/gcc/app_start.lib(stdlib_func.o)
                0x082a5dec                Ql_atoi
 *fill*         0x082a5e3a        0x2 
 .text.Ql_Sleep
                0x082a5e3c       0x2c libs/gcc/app_start.lib(system.o)
                0x082a5e3c                Ql_Sleep
 .text.Ql_Reset
                0x082a5e68       0x2c libs/gcc/app_start.lib(system.o)
                0x082a5e68                Ql_Reset
 .text.Ql_GetvFunc_Init_Status
                0x082a5e94       0x28 libs/gcc/app_start.lib(system.o)
                0x082a5e94                Ql_GetvFunc_Init_Status
 .text.Ql_GetSDKVer
                0x082a5ebc       0x38 libs/gcc/app_start.lib(system.o)
                0x082a5ebc                Ql_GetSDKVer
 .text.Ql_OS_GetMessage
                0x082a5ef4       0x34 libs/gcc/app_start.lib(taskMngt.o)
                0x082a5ef4                Ql_OS_GetMessage
 .text.Ql_OS_SendMessage
                0x082a5f28       0x44 libs/gcc/app_start.lib(taskMngt.o)
                0x082a5f28                Ql_OS_SendMessage
 .text.Ql_OS_CreateMutex
                0x082a5f6c       0x28 libs/gcc/app_start.lib(taskMngt.o)
                0x082a5f6c                Ql_OS_CreateMutex
 .text.Ql_OS_TakeMutex
                0x082a5f94       0x30 libs/gcc/app_start.lib(taskMngt.o)
                0x082a5f94                Ql_OS_TakeMutex
 .text.Ql_OS_GiveMutex
                0x082a5fc4       0x2c libs/gcc/app_start.lib(taskMngt.o)
                0x082a5fc4                Ql_OS_GiveMutex
 .text.Ql_OS_CreateEvent
                0x082a5ff0       0x28 libs/gcc/app_start.lib(taskMngt.o)
                0x082a5ff0                Ql_OS_CreateEvent
 .text.Ql_OS_WaitEvent
                0x082a6018       0x3c libs/gcc/app_start.lib(taskMngt.o)
                0x082a6018                Ql_OS_WaitEvent
 .text.Ql_OS_SetEvent
                0x082a6054       0x38 libs/gcc/app_start.lib(taskMngt.o)
                0x082a6054                Ql_OS_SetEvent
 .text.Ql_ril_request_command
                0x082a608c       0x34 libs/gcc/app_start.lib(taskMngt.o)
                0x082a608c                Ql_ril_request_command
 .text.Ql_Timer_Register
                0x082a60c0       0x3c libs/gcc/app_start.lib(timer.o)
                0x082a60c0                Ql_Timer_Register
 .text.Ql_Timer_Start
                0x082a60fc       0x3c libs/gcc/app_start.lib(timer.o)
                0x082a60fc                Ql_Timer_Start
 .text.Ql_Timer_Stop
                0x082a6138       0x34 libs/gcc/app_start.lib(timer.o)
                0x082a6138                Ql_Timer_Stop
 .text.Ql_UART_Register
                0x082a616c       0x3c libs/gcc/app_start.lib(uart.o)
                0x082a616c                Ql_UART_Register
 .text.Ql_UART_Open
                0x082a61a8       0x3c libs/gcc/app_start.lib(uart.o)
                0x082a61a8                Ql_UART_Open
 .text.Ql_UART_Write
                0x082a61e4       0x3c libs/gcc/app_start.lib(uart.o)
                0x082a61e4                Ql_UART_Write
 .text.Ql_UART_Read
                0x082a6220       0x3c libs/gcc/app_start.lib(uart.o)
                0x082a6220                Ql_UART_Read
 .text.atoi     0x082a625c        0x8 tools\gcc\win\gcc-arm-none-eabi/arm-none-eabi/lib/armv7e-m/fpu/libc.a(lib_a-atoi.o)
                0x082a625c                atoi
 .text.memset   0x082a6264       0x94 tools\gcc\win\gcc-arm-none-eabi/arm-none-eabi/lib/armv7e-m/fpu/libc.a(lib_a-memset.o)
                0x082a6264                memset
 .text.strchr   0x082a62f8       0xf4 tools\gcc\win\gcc-arm-none-eabi/arm-none-eabi/lib/armv7e-m/fpu/libc.a(lib_a-strchr.o)
                0x082a62f8                strchr
 .text.strcpy   0x082a63ec       0xbc tools\gcc\win\gcc-arm-none-eabi/arm-none-eabi/lib/armv7e-m/fpu/libc.a(lib_a-strcpy.o)
                0x082a63ec                strcpy
 .text.strlen   0x082a64a8       0x60 tools\gcc\win\gcc-arm-none-eabi/arm-none-eabi/lib/armv7e-m/fpu/libc.a(lib_a-strlen.o)
                0x082a64a8                strlen
 .text.strncpy  0x082a6508       0x64 tools\gcc\win\gcc-arm-none-eabi/arm-none-eabi/lib/armv7e-m/fpu/libc.a(lib_a-strncpy.o)
                0x082a6508                strncpy
 .text.strsep   0x082a656c        0xc tools\gcc\win\gcc-arm-none-eabi/arm-none-eabi/lib/armv7e-m/fpu/libc.a(lib_a-strsep.o)
                0x082a656c                strsep
 .text.strtok   0x082a6578       0x10 tools\gcc\win\gcc-arm-none-eabi/arm-none-eabi/lib/armv7e-m/fpu/libc.a(lib_a-strtok.o)
                0x082a6578                strtok
 .text.__strtok_r
                0x082a6588       0x64 tools\gcc\win\gcc-arm-none-eabi/arm-none-eabi/lib/armv7e-m/fpu/libc.a(lib_a-strtok_r.o)
                0x082a6588                __strtok_r
 .text._strtol_r
                0x082a65ec      0x114 tools\gcc\win\gcc-arm-none-eabi/arm-none-eabi/lib/armv7e-m/fpu/libc.a(lib_a-strtol.o)
                0x082a65ec                _strtol_r
 .text.strtol   0x082a6700       0x18 tools\gcc\win\gcc-arm-none-eabi/arm-none-eabi/lib/armv7e-m/fpu/libc.a(lib_a-strtol.o)
                0x082a6700                strtol
 *(.text)
 .text          0x082a6718       0x4c libs/gcc/app_start.lib(ocpu_init.o)
                0x082a672c                _OCPU_InitUserMem
 .text          0x082a6764      0x134 tools\gcc\win\gcc-arm-none-eabi/arm-none-eabi/lib/armv7e-m/fpu/libc.a(lib_a-memcpy.o)
                0x082a6764                memcpy
 .text          0x082a6898      0x370 tools\gcc\win\gcc-arm-none-eabi/lib/gcc/arm-none-eabi/4.8.3/armv7e-m/fpu/libgcc.a(_arm_addsubdf3.o)
                0x082a6898                __aeabi_drsub
                0x082a68a0                __aeabi_dsub
                0x082a68a0                __subdf3
                0x082a68a4                __aeabi_dadd
                0x082a68a4                __adddf3
                0x082a6b1c                __floatunsidf
                0x082a6b1c                __aeabi_ui2d
                0x082a6b3c                __floatsidf
                0x082a6b3c                __aeabi_i2d
                0x082a6b60                __aeabi_f2d
                0x082a6b60                __extendsfdf2
                0x082a6b9c                __floatundidf
                0x082a6b9c                __aeabi_ul2d
                0x082a6bac                __floatdidf
                0x082a6bac                __aeabi_l2d
 .text          0x082a6c08      0x424 tools\gcc\win\gcc-arm-none-eabi/lib/gcc/arm-none-eabi/4.8.3/armv7e-m/fpu/libgcc.a(_arm_muldivdf3.o)
                0x082a6c08                __aeabi_dmul
                0x082a6c08                __muldf3
                0x082a6e5c                __divdf3
                0x082a6e5c                __aeabi_ddiv
 .text          0x082a702c      0x110 tools\gcc\win\gcc-arm-none-eabi/lib/gcc/arm-none-eabi/4.8.3/armv7e-m/fpu/libgcc.a(_arm_cmpdf2.o)
                0x082a702c                __gtdf2
                0x082a702c                __gedf2
                0x082a7034                __ltdf2
                0x082a7034                __ledf2
                0x082a703c                __nedf2
                0x082a703c                __eqdf2
                0x082a703c                __cmpdf2
                0x082a70b8                __aeabi_cdrcmple
                0x082a70c8                __aeabi_cdcmpeq
                0x082a70c8                __aeabi_cdcmple
                0x082a70d8                __aeabi_dcmpeq
                0x082a70ec                __aeabi_dcmplt
                0x082a7100                __aeabi_dcmple
                0x082a7114                __aeabi_dcmpge
                0x082a7128                __aeabi_dcmpgt
 .text          0x082a713c       0x50 tools\gcc\win\gcc-arm-none-eabi/lib/gcc/arm-none-eabi/4.8.3/armv7e-m/fpu/libgcc.a(_arm_fixdfsi.o)
                0x082a713c                __aeabi_d2iz
                0x082a713c                __fixdfsi
 .text          0x082a718c       0x40 tools\gcc\win\gcc-arm-none-eabi/lib/gcc/arm-none-eabi/4.8.3/armv7e-m/fpu/libgcc.a(_arm_fixunsdfsi.o)
                0x082a718c                __aeabi_d2uiz
                0x082a718c                __fixunsdfsi
 .text          0x082a71cc       0x2c tools\gcc\win\gcc-arm-none-eabi/lib/gcc/arm-none-eabi/4.8.3/armv7e-m/fpu/libgcc.a(_aeabi_uldivmod.o)
                0x082a71cc                __aeabi_uldivmod
 .text          0x082a71f8       0x60 tools\gcc\win\gcc-arm-none-eabi/lib/gcc/arm-none-eabi/4.8.3/armv7e-m/fpu/libgcc.a(bpabi.o)
                0x082a71f8                __gnu_ldivmod_helper
                0x082a7228                __gnu_uldivmod_helper
 .text          0x082a7258        0x4 tools\gcc\win\gcc-arm-none-eabi/lib/gcc/arm-none-eabi/4.8.3/armv7e-m/fpu/libgcc.a(_dvmd_tls.o)
                0x082a7258                __aeabi_idiv0
                0x082a7258                __aeabi_ldiv0
 .text          0x082a725c      0x298 tools\gcc\win\gcc-arm-none-eabi/lib/gcc/arm-none-eabi/4.8.3/armv7e-m/fpu/libgcc.a(_divdi3.o)
                0x082a725c                __divdi3
 .text          0x082a74f4      0x284 tools\gcc\win\gcc-arm-none-eabi/lib/gcc/arm-none-eabi/4.8.3/armv7e-m/fpu/libgcc.a(_udivdi3.o)
                0x082a74f4                __udivdi3

.glue_7         0x082a7778        0x0
 .glue_7        0x00000000        0x0 linker stubs

.glue_7t        0x082a7778        0x0
 .glue_7t       0x00000000        0x0 linker stubs

.vfp11_veneer   0x082a7778        0x0
 .vfp11_veneer  0x00000000        0x0 linker stubs

.v4_bx          0x082a7778        0x0
 .v4_bx         0x00000000        0x0 linker stubs

.iplt           0x082a7778        0x0
 .iplt          0x00000000        0x0 build\gcc\obj/App/Pluto-Switch3-V1.0/config/custom_sys_cfg.o

.rodata         0x082a7778       0x37
                0x082a7778                . = ALIGN (0x4)
 *(.rodata)
 .rodata        0x082a7778        0xb build\gcc\obj/ril/src/ril_network.o
 .rodata        0x082a7783       0x16 libs/gcc/app_start.lib(ql_main.o)
 .rodata        0x082a7799       0x16 libs/gcc/app_start.lib(system.o)
                0x082aa968                __data_load = LOADADDR (.data)

.rodata.appEnableCfg
                0x082a77b0        0x4
 .rodata.appEnableCfg
                0x082a77b0        0x4 build\gcc\obj/App/Pluto-Switch3-V1.0/config/custom_sys_cfg.o

.rodata.debugPortCfg
                0x082a77b4        0x1
 .rodata.debugPortCfg
                0x082a77b4        0x1 build\gcc\obj/App/Pluto-Switch3-V1.0/config/custom_sys_cfg.o

.rodata.debugPortSet
                0x082a77b5        0x2
 .rodata.debugPortSet
                0x082a77b5        0x2 build\gcc\obj/App/Pluto-Switch3-V1.0/config/custom_sys_cfg.o

.rodata.SystemCfg
                0x082a77b8       0x30
 .rodata.SystemCfg
                0x082a77b8       0x30 build\gcc\obj/App/Pluto-Switch3-V1.0/config/custom_sys_cfg.o
                0x082a77b8                SystemCfg

.rodata.GpioConfigTbl
                0x082a77e8        0x4
 .rodata.GpioConfigTbl
                0x082a77e8        0x4 build\gcc\obj/App/Pluto-Switch3-V1.0/config/sys_config.o
                0x082a77e8                GpioConfigTbl

.rodata.TaskConfig
                0x082a77ec       0x78
 .rodata.TaskConfig
                0x082a77ec       0x78 build\gcc\obj/App/Pluto-Switch3-V1.0/config/sys_config.o
                0x082a77ec                TaskConfig

.rodata.str1.1  0x082a7864     0x237c
 .rodata.str1.1
                0x082a7864       0x49 build\gcc\obj/ril/src/ril_atResponse.o
                                 0x52 (size before relaxing)
 .rodata.str1.1
                0x082a78ad       0x4e build\gcc\obj/ril/src/ril_dfota.o
 .rodata.str1.1
                0x082a78fb       0x2c build\gcc\obj/ril/src/ril_init.o
 .rodata.str1.1
                0x082a7927       0x63 build\gcc\obj/ril/src/ril_network.o
                                 0x8e (size before relaxing)
 .rodata.str1.1
                0x082a798a      0x109 build\gcc\obj/ril/src/ril_socket.o
                                0x12f (size before relaxing)
 .rodata.str1.1
                0x082a7a93       0x3c build\gcc\obj/ril/src/ril_system.o
                                 0x56 (size before relaxing)
 .rodata.str1.1
                0x082a7acf      0x10d build\gcc\obj/ril/src/ril_urc.o
                                0x110 (size before relaxing)
 .rodata.str1.1
                0x082a7bdc       0x11 build\gcc\obj/ril/src/ril_util.o
                                 0x16 (size before relaxing)
 .rodata.str1.1
                0x082a7bed      0x1cd build\gcc\obj/App/Pluto-Switch3-V1.0/app_task.o
 .rodata.str1.1
                0x082a7dba      0x2f8 build\gcc\obj/App/Pluto-Switch3-V1.0/bc26_init.o
                                0x338 (size before relaxing)
 .rodata.str1.1
                0x082a80b2       0x17 build\gcc\obj/App/Pluto-Switch3-V1.0/factory_settings.o
 .rodata.str1.1
                0x082a80c9       0x11 build\gcc\obj/App/Pluto-Switch3-V1.0/hal_key.o
 .rodata.str1.1
                0x082a80da       0x5b build\gcc\obj/App/Pluto-Switch3-V1.0/hal_lamp.o
 .rodata.str1.1
                0x082a8135       0x22 build\gcc\obj/App/Pluto-Switch3-V1.0/hal_led.o
                                 0x33 (size before relaxing)
 .rodata.str1.1
                0x082a8157       0x52 build\gcc\obj/App/Pluto-Switch3-V1.0/hal_uart.o
 .rodata.str1.1
                0x082a81a9       0x42 build\gcc\obj/App/Pluto-Switch3-V1.0/main.o
                                 0x5b (size before relaxing)
 .rodata.str1.1
                0x082a81eb      0x1a2 build\gcc\obj/pluto/fs/pluto_file_system.o
                                0x1bb (size before relaxing)
 .rodata.str1.1
                0x082a838d       0x24 build\gcc\obj/pluto/json/cJSON.o
                                 0x29 (size before relaxing)
 .rodata.str1.1
                0x082a83b1       0xb9 build\gcc\obj/pluto/socket/udp_socket.o
                                 0xeb (size before relaxing)
 .rodata.str1.1
                0x082a846a       0xa0 build\gcc\obj/pluto/spiffs/fs_entry.o
 .rodata.str1.1
                0x082a850a       0x3a build\gcc\obj/pluto/spiffs/hal_spi.o
                                 0x53 (size before relaxing)
 .rodata.str1.1
                0x082a8544       0xac build\gcc\obj/pluto/spiffs/spiffs_flash_functions.o
 .rodata.str1.1
                0x082a85f0       0xbf pluto/plutolib.a(pluto.o)
                                 0xf1 (size before relaxing)
 .rodata.str1.1
                0x082a86af       0x3c pluto/plutolib.a(pluto_common.o)
                                 0x55 (size before relaxing)
 .rodata.str1.1
                0x082a86eb       0x46 pluto/plutolib.a(aps_output.o)
                                 0x5f (size before relaxing)
 .rodata.str1.1
                0x082a8731        0x9 pluto/plutolib.a(aps_user.o)
 .rodata.str1.1
                0x082a873a       0x81 pluto/plutolib.a(lcl_output.o)
                                 0xb9 (size before relaxing)
 .rodata.str1.1
                0x082a87bb      0x165 pluto/plutolib.a(login.o)
                                0x17e (size before relaxing)
 .rodata.str1.1
                0x082a8920       0x57 pluto/plutolib.a(nwk_output.o)
                                 0x89 (size before relaxing)
 .rodata.str1.1
                0x082a8977       0x50 pluto/plutolib.a(nwk_route.o)
                                 0x69 (size before relaxing)
 .rodata.str1.1
                0x082a89c7       0x4f pluto/plutolib.a(osCore.o)
                                 0x68 (size before relaxing)
 .rodata.str1.1
                0x082a8a16        0xc pluto/plutolib.a(osLibc.o)
 .rodata.str1.1
                0x00000000        0x3 pluto/plutolib.a(osTrace.o)
 .rodata.str1.1
                0x082a8a22      0x2ac pluto/plutolib.a(pdo_describe.o)
                                0x2f7 (size before relaxing)
 .rodata.str1.1
                0x082a8cce       0x31 pluto/plutolib.a(pdo_record.o)
                                 0x4a (size before relaxing)
 .rodata.str1.1
                0x082a8cff       0x69 pluto/plutolib.a(pdo_scene.o)
                                 0x8f (size before relaxing)
 .rodata.str1.1
                0x082a8d68       0x84 pluto/plutolib.a(pdo_server.o)
                                 0x91 (size before relaxing)
 .rodata.str1.1
                0x082a8dec        0xb pluto/plutolib.a(pdo_update.o)
                                 0x10 (size before relaxing)
 .rodata.str1.1
                0x082a8df7       0xd9 pluto/plutolib.a(scene.o)
                                0x102 (size before relaxing)
 .rodata.str1.1
                0x082a8ed0      0x180 pluto/plutolib.a(scene_core.o)
                                0x1c5 (size before relaxing)
 .rodata.str1.1
                0x082a9050      0x108 pluto/plutolib.a(scene_do.o)
                                0x12d (size before relaxing)
 .rodata.str1.1
                0x082a9158       0x11 pluto/plutolib.a(scene_lib.o)
                                 0x25 (size before relaxing)
 .rodata.str1.1
                0x082a9169        0xa pluto/plutolib.a(scene_reason.o)
                                 0x29 (size before relaxing)
 .rodata.str1.1
                0x082a9173      0x158 pluto/plutolib.a(aps_input.o)
                                0x19a (size before relaxing)
 .rodata.str1.1
                0x082a92cb       0x3d pluto/plutolib.a(lcl_crypto.o)
                                 0x56 (size before relaxing)
 .rodata.str1.1
                0x082a9308      0x167 pluto/plutolib.a(nwk_input.o)
                                0x1b2 (size before relaxing)
 .rodata.str1.1
                0x082a946f       0xa3 pluto/plutolib.a(pdo.o)
                                 0xbc (size before relaxing)
 .rodata.str1.1
                0x082a9512       0x6b pluto/plutolib.a(pdo_file_system.o)
                                 0xaa (size before relaxing)
 .rodata.str1.1
                0x082a957d       0x30 pluto/plutolib.a(pdo_utb.o)
                                 0x3b (size before relaxing)
 .rodata.str1.1
                0x082a95ad      0x175 pluto/plutolib.a(lcl_input.o)
                                0x1c0 (size before relaxing)
 .rodata.str1.1
                0x082a9722       0x81 libs/gcc/app_start.lib(gpio.o)
 .rodata.str1.1
                0x082a97a3       0x19 libs/gcc/app_start.lib(memory.o)
 .rodata.str1.1
                0x082a97bc       0x1a libs/gcc/app_start.lib(ql_main.o)
 .rodata.str1.1
                0x082a97d6        0x5 libs/gcc/app_start.lib(ril_main.o)
                                 0x11 (size before relaxing)
 .rodata.str1.1
                0x082a97db       0x5a libs/gcc/app_start.lib(spi.o)
 .rodata.str1.1
                0x082a9835       0xa1 libs/gcc/app_start.lib(stdlib_func.o)
 .rodata.str1.1
                0x082a98d6       0x36 libs/gcc/app_start.lib(system.o)
 .rodata.str1.1
                0x082a990c      0x1cc libs/gcc/app_start.lib(taskMngt.o)
 .rodata.str1.1
                0x082a9ad8       0xa0 libs/gcc/app_start.lib(timer.o)
 .rodata.str1.1
                0x082a9b78       0x68 libs/gcc/app_start.lib(uart.o)

.rodata.m_AtURCHdlEntry
                0x082a9be0      0x230
 .rodata.m_AtURCHdlEntry
                0x082a9be0      0x230 build\gcc\obj/ril/src/ril_urc.o

.rodata.m_SysURCHdlEntry
                0x082a9e10       0xe0
 .rodata.m_SysURCHdlEntry
                0x082a9e10       0xe0 build\gcc\obj/ril/src/ril_urc.o

.rodata.__FUNCTION__.5186
                0x082a9ef0        0x9
 .rodata.__FUNCTION__.5186
                0x082a9ef0        0x9 build\gcc\obj/App/Pluto-Switch3-V1.0/app_task.o

.rodata.__FUNCTION__.5233
                0x082a9ef9       0x13
 .rodata.__FUNCTION__.5233
                0x082a9ef9       0x13 build\gcc\obj/App/Pluto-Switch3-V1.0/app_task.o

.rodata.sensor_attribute_id
                0x082a9f0c        0x8
 .rodata.sensor_attribute_id
                0x082a9f0c        0x8 build\gcc\obj/App/Pluto-Switch3-V1.0/app_task.o
                0x082a9f0c                sensor_attribute_id

.rodata.switch_attribute_id
                0x082a9f14        0x4
 .rodata.switch_attribute_id
                0x082a9f14        0x4 build\gcc\obj/App/Pluto-Switch3-V1.0/app_task.o
                0x082a9f14                switch_attribute_id

.rodata.__FUNCTION__.5199
                0x082a9f18       0x1e
 .rodata.__FUNCTION__.5199
                0x082a9f18       0x10 build\gcc\obj/App/Pluto-Switch3-V1.0/app_task.o
 .rodata.__FUNCTION__.5199
                0x082a9f28        0xe build\gcc\obj/pluto/socket/udp_socket.o

.rodata.device_attribute_id
                0x082a9f38       0x30
 .rodata.device_attribute_id
                0x082a9f38       0x30 build\gcc\obj/App/Pluto-Switch3-V1.0/app_task.o
                0x082a9f38                device_attribute_id

.rodata.device_describe
                0x082a9f68       0x30
 .rodata.device_describe
                0x082a9f68       0x30 build\gcc\obj/App/Pluto-Switch3-V1.0/app_task.o
                0x082a9f68                device_describe

.rodata.__FUNCTION__.4584
                0x082a9f98        0xa
 .rodata.__FUNCTION__.4584
                0x082a9f98        0xa build\gcc\obj/App/Pluto-Switch3-V1.0/bc26_init.o

.rodata.__FUNCTION__.4578
                0x082a9fa2       0x10
 .rodata.__FUNCTION__.4578
                0x082a9fa2       0x10 build\gcc\obj/App/Pluto-Switch3-V1.0/bc26_init.o

.rodata.__FUNCTION__.4606
                0x082a9fb2       0x15
 .rodata.__FUNCTION__.4606
                0x082a9fb2       0x15 build\gcc\obj/App/Pluto-Switch3-V1.0/bc26_init.o

.rodata.__FUNCTION__.4614
                0x082a9fc7       0x15
 .rodata.__FUNCTION__.4614
                0x082a9fc7       0x15 build\gcc\obj/App/Pluto-Switch3-V1.0/bc26_init.o

.rodata.__FUNCTION__.4987
                0x082a9fdc        0xf
 .rodata.__FUNCTION__.4987
                0x082a9fdc        0xf build\gcc\obj/App/Pluto-Switch3-V1.0/main.o

.rodata.myadapter
                0x082a9fec       0x18
 .rodata.myadapter
                0x082a9fec       0x18 build\gcc\obj/pluto/pluto_entry.o

.rodata.__FUNCTION__.4958
                0x082aa004       0x1f
 .rodata.__FUNCTION__.4958
                0x082aa004       0x15 build\gcc\obj/pluto/fs/pluto_file_system.o
 .rodata.__FUNCTION__.4958
                0x082aa019        0xa pluto/plutolib.a(nwk_input.o)

.rodata.__FUNCTION__.4967
                0x082aa023       0x16
 .rodata.__FUNCTION__.4967
                0x082aa023       0x16 build\gcc\obj/pluto/fs/pluto_file_system.o

.rodata.__FUNCTION__.4981
                0x082aa039       0x10
 .rodata.__FUNCTION__.4981
                0x082aa039       0x10 build\gcc\obj/pluto/fs/pluto_file_system.o

.rodata.__FUNCTION__.5035
                0x082aa049       0x11
 .rodata.__FUNCTION__.5035
                0x082aa049       0x11 build\gcc\obj/pluto/fs/pluto_file_system.o

.rodata.__FUNCTION__.4990
                0x082aa05a       0x11
 .rodata.__FUNCTION__.4990
                0x082aa05a       0x11 build\gcc\obj/pluto/fs/pluto_file_system.o

.rodata.__FUNCTION__.5056
                0x082aa06b        0xf
 .rodata.__FUNCTION__.5056
                0x082aa06b        0xf build\gcc\obj/pluto/fs/pluto_file_system.o

.rodata.firstByteMark
                0x082aa07a        0x7
 .rodata.firstByteMark
                0x082aa07a        0x7 build\gcc\obj/pluto/json/cJSON.o

.rodata.__FUNCTION__.5185
                0x082aa081        0xc
 .rodata.__FUNCTION__.5185
                0x082aa081        0xc build\gcc\obj/pluto/socket/udp_socket.o

.rodata.__FUNCTION__.5144
                0x082aa08d       0x12
 .rodata.__FUNCTION__.5144
                0x082aa08d       0x12 build\gcc\obj/pluto/socket/udp_socket.o

.rodata.__FUNCTION__.5158
                0x082aa09f       0x10
 .rodata.__FUNCTION__.5158
                0x082aa09f       0x10 build\gcc\obj/pluto/socket/udp_socket.o

.rodata.__FUNCTION__.4554
                0x082aa0af        0xd
 .rodata.__FUNCTION__.4554
                0x082aa0af        0xd build\gcc\obj/pluto/spiffs/hal_spi.o

.rodata.__FUNCTION__.5812
                0x082aa0bc        0xf
 .rodata.__FUNCTION__.5812
                0x082aa0bc        0xf pluto/plutolib.a(pluto.o)

.rodata.__FUNCTION__.5816
                0x082aa0cb       0x13
 .rodata.__FUNCTION__.5816
                0x082aa0cb       0x13 pluto/plutolib.a(pluto.o)

.rodata.default_key
                0x082aa0de       0x10
 .rodata.default_key
                0x082aa0de       0x10 pluto/plutolib.a(pluto_common.o)

.rodata.__FUNCTION__.4827
                0x082aa0ee       0x15
 .rodata.__FUNCTION__.4827
                0x082aa0ee       0x15 pluto/plutolib.a(pluto_common.o)

.rodata.__FUNCTION__.5737
                0x082aa103       0x17
 .rodata.__FUNCTION__.5737
                0x082aa103       0x17 pluto/plutolib.a(aps_output.o)

.rodata.__FUNCTION__.5088
                0x082aa11a       0x14
 .rodata.__FUNCTION__.5088
                0x082aa11a       0x14 pluto/plutolib.a(lcl_output.o)

.rodata.__FUNCTION__.5094
                0x082aa12e       0x23
 .rodata.__FUNCTION__.5094
                0x082aa12e       0x12 pluto/plutolib.a(lcl_output.o)
 .rodata.__FUNCTION__.5094
                0x082aa140       0x11 pluto/plutolib.a(nwk_input.o)

.rodata.__FUNCTION__.5163
                0x082aa151       0x11
 .rodata.__FUNCTION__.5163
                0x082aa151       0x11 pluto/plutolib.a(login.o)

.rodata.__FUNCTION__.5169
                0x082aa162       0x14
 .rodata.__FUNCTION__.5169
                0x082aa162       0x14 pluto/plutolib.a(login.o)

.rodata.__FUNCTION__.5175
                0x082aa176       0x12
 .rodata.__FUNCTION__.5175
                0x082aa176       0x12 pluto/plutolib.a(login.o)

.rodata.ServerAddr
                0x082aa188        0x8
 .rodata.ServerAddr
                0x082aa188        0x8 pluto/plutolib.a(nwk_nib.o)
                0x082aa188                ServerAddr

.rodata.BroadcastAddr
                0x082aa190        0x8
 .rodata.BroadcastAddr
                0x082aa190        0x8 pluto/plutolib.a(nwk_nib.o)
                0x082aa190                BroadcastAddr

.rodata.__FUNCTION__.5100
                0x082aa198        0xf
 .rodata.__FUNCTION__.5100
                0x082aa198        0xf pluto/plutolib.a(nwk_output.o)

.rodata.__FUNCTION__.4941
                0x082aa1a7       0x26
 .rodata.__FUNCTION__.4941
                0x082aa1a7       0x15 pluto/plutolib.a(nwk_route.o)
 .rodata.__FUNCTION__.4941
                0x082aa1bc       0x11 pluto/plutolib.a(lcl_input.o)

.rodata.__FUNCTION__.4540
                0x082aa1cd       0x10
 .rodata.__FUNCTION__.4540
                0x082aa1cd       0x10 pluto/plutolib.a(osCore.o)

.rodata.CRC16Table
                0x082aa1de      0x200
 .rodata.CRC16Table
                0x082aa1de      0x200 pluto/plutolib.a(osLibc.o)
                0x082aa1de                CRC16Table

.rodata.ascii_table
                0x082aa3de       0x10
 .rodata.ascii_table
                0x082aa3de       0x10 pluto/plutolib.a(osLibc.o)
                0x082aa3de                ascii_table

.rodata.DayOfMon
                0x082aa3ee        0xc
 .rodata.DayOfMon
                0x082aa3ee        0xc pluto/plutolib.a(osTimer.o)
                0x082aa3ee                DayOfMon

.rodata.__mon_yday
                0x082aa3fa       0x34
 .rodata.__mon_yday
                0x082aa3fa       0x34 pluto/plutolib.a(osTimer.o)
                0x082aa3fa                __mon_yday

.rodata.pow10.3816
                0x082aa430       0x50
 .rodata.pow10.3816
                0x082aa430       0x50 pluto/plutolib.a(printf.o)

.rodata.__FUNCTION__.5961
                0x082aa480       0x11
 .rodata.__FUNCTION__.5961
                0x082aa480       0x11 pluto/plutolib.a(pdo_describe.o)

.rodata.__FUNCTION__.5619
                0x082aa491       0x1c
 .rodata.__FUNCTION__.5619
                0x082aa491       0x1c pluto/plutolib.a(pdo_describe.o)

.rodata.__FUNCTION__.5868
                0x082aa4ad       0x15
 .rodata.__FUNCTION__.5868
                0x082aa4ad       0x15 pluto/plutolib.a(pdo_describe.o)

.rodata.__FUNCTION__.5701
                0x082aa4c2       0x17
 .rodata.__FUNCTION__.5701
                0x082aa4c2       0x17 pluto/plutolib.a(pdo_describe.o)

.rodata.__FUNCTION__.5660
                0x082aa4d9       0x18
 .rodata.__FUNCTION__.5660
                0x082aa4d9       0x18 pluto/plutolib.a(pdo_describe.o)

.rodata.__FUNCTION__.5721
                0x082aa4f1       0x12
 .rodata.__FUNCTION__.5721
                0x082aa4f1       0x12 pluto/plutolib.a(pdo_describe.o)

.rodata.__FUNCTION__.5882
                0x082aa503       0x18
 .rodata.__FUNCTION__.5882
                0x082aa503       0x18 pluto/plutolib.a(pdo_describe.o)

.rodata.__FUNCTION__.5463
                0x082aa51b       0x12
 .rodata.__FUNCTION__.5463
                0x082aa51b       0x12 pluto/plutolib.a(pdo_scene.o)

.rodata.__FUNCTION__.4964
                0x082aa52d       0x11
 .rodata.__FUNCTION__.4964
                0x082aa52d       0x11 pluto/plutolib.a(scene.o)

.rodata.__FUNCTION__.5210
                0x082aa53e       0x10
 .rodata.__FUNCTION__.5210
                0x082aa53e       0x10 pluto/plutolib.a(scene_core.o)

.rodata.__FUNCTION__.5220
                0x082aa54e        0xb
 .rodata.__FUNCTION__.5220
                0x082aa54e        0xb pluto/plutolib.a(scene_core.o)

.rodata.__FUNCTION__.5230
                0x082aa559        0xa
 .rodata.__FUNCTION__.5230
                0x082aa559        0xa pluto/plutolib.a(scene_core.o)

.rodata.__FUNCTION__.5038
                0x082aa563        0xb
 .rodata.__FUNCTION__.5038
                0x082aa563        0xb pluto/plutolib.a(scene_do.o)

.rodata.__FUNCTION__.5630
                0x082aa56e       0x13
 .rodata.__FUNCTION__.5630
                0x082aa56e       0x13 pluto/plutolib.a(aps_input.o)

.rodata.__FUNCTION__.5652
                0x082aa581       0x11
 .rodata.__FUNCTION__.5652
                0x082aa581       0x11 pluto/plutolib.a(aps_input.o)

.rodata.__FUNCTION__.5620
                0x082aa592        0xa
 .rodata.__FUNCTION__.5620
                0x082aa592        0xa pluto/plutolib.a(aps_input.o)

.rodata.__FUNCTION__.4809
                0x082aa59c        0xc
 .rodata.__FUNCTION__.4809
                0x082aa59c        0xc pluto/plutolib.a(lcl_crypto.o)

.rodata.CBC_IV  0x082aa5a8       0x10
 .rodata.CBC_IV
                0x082aa5a8       0x10 pluto/plutolib.a(lcl_crypto.o)
                0x082aa5a8                CBC_IV

.rodata.__FUNCTION__.5018
                0x082aa5b8       0x15
 .rodata.__FUNCTION__.5018
                0x082aa5b8       0x15 pluto/plutolib.a(nwk_input.o)

.rodata.__FUNCTION__.5026
                0x082aa5cd        0xc
 .rodata.__FUNCTION__.5026
                0x082aa5cd        0xc pluto/plutolib.a(nwk_input.o)

.rodata.__FUNCTION__.5627
                0x082aa5d9       0x14
 .rodata.__FUNCTION__.5627
                0x082aa5d9       0x14 pluto/plutolib.a(pdo.o)

.rodata.__FUNCTION__.5618
                0x082aa5ed        0xd
 .rodata.__FUNCTION__.5618
                0x082aa5ed        0xd pluto/plutolib.a(pdo.o)

.rodata.__FUNCTION__.5566
                0x082aa5fa       0x15
 .rodata.__FUNCTION__.5566
                0x082aa5fa       0x15 pluto/plutolib.a(pdo.o)

.rodata.__FUNCTION__.5574
                0x082aa60f       0x18
 .rodata.__FUNCTION__.5574
                0x082aa60f       0x18 pluto/plutolib.a(pdo_file_system.o)

.rodata.__FUNCTION__.5621
                0x082aa627       0x14
 .rodata.__FUNCTION__.5621
                0x082aa627       0x14 pluto/plutolib.a(pdo_file_system.o)

.rodata.sbox    0x082aa63b      0x100
 .rodata.sbox   0x082aa63b      0x100 pluto/plutolib.a(lcl_aes.o)

.rodata.rsbox   0x082aa73b      0x100
 .rodata.rsbox  0x082aa73b      0x100 pluto/plutolib.a(lcl_aes.o)

.rodata.Rcon    0x082aa83b        0xb
 .rodata.Rcon   0x082aa83b        0xb pluto/plutolib.a(lcl_aes.o)

.rodata.__FUNCTION__.4953
                0x082aa846       0x11
 .rodata.__FUNCTION__.4953
                0x082aa846       0x11 pluto/plutolib.a(lcl_input.o)

.rodata._ctype_
                0x082aa858      0x104
 .rodata._ctype_
                0x082aa858      0x104 tools\gcc\win\gcc-arm-none-eabi/arm-none-eabi/lib/armv7e-m/fpu/libc.a(lib_a-ctype_.o)
                0x082aa858                _ctype_

.rodata.str1.4  0x082aa95c        0x4
 .rodata.str1.4
                0x082aa95c        0x4 tools\gcc\win\gcc-arm-none-eabi/arm-none-eabi/lib/armv7e-m/fpu/libc.a(lib_a-impure.o)

.ARM.exidx      0x082aa960        0x8
 .ARM.exidx     0x082aa960        0x8 tools\gcc\win\gcc-arm-none-eabi/lib/gcc/arm-none-eabi/4.8.3/armv7e-m/fpu/libgcc.a(_divdi3.o)
 .ARM.exidx     0x082aa968        0x0 tools\gcc\win\gcc-arm-none-eabi/lib/gcc/arm-none-eabi/4.8.3/armv7e-m/fpu/libgcc.a(_udivdi3.o)
                                  0x8 (size before relaxing)

.rel.dyn        0x082aa968        0x0
 .rel.iplt      0x00000000        0x0 build\gcc\obj/App/Pluto-Switch3-V1.0/config/custom_sys_cfg.o

.data           0x001e7000      0x4b4 load address 0x082aa968
                0x001e7000                __data_start = .
                0x001e7000                . = ALIGN (0x4)
 *(.data.*)
 .data.g_InitCmds
                0x001e7000        0xc build\gcc\obj/ril/src/ril_init.o
                0x001e7000                g_InitCmds
 .data.g_LimitedCmds
                0x001e700c        0x4 build\gcc\obj/ril/src/ril_init.o
                0x001e700c                g_LimitedCmds
 .data.g_LWM2M_RECV_DATA_MODE
                0x001e7010        0x1 build\gcc\obj/ril/src/ril_lwm2m.o
                0x001e7010                g_LWM2M_RECV_DATA_MODE
 *fill*         0x001e7011        0x3 
 .data.ATTest   0x001e7014        0x4 build\gcc\obj/App/Pluto-Switch3-V1.0/bc26_init.o
                0x001e7014                ATTest
 .data.ATDisableSleep
                0x001e7018        0x4 build\gcc\obj/App/Pluto-Switch3-V1.0/bc26_init.o
                0x001e7018                ATDisableSleep
 .data.ATReportNetworkState
                0x001e701c        0x4 build\gcc\obj/App/Pluto-Switch3-V1.0/bc26_init.o
                0x001e701c                ATReportNetworkState
 .data.ATResetModule
                0x001e7020        0x4 build\gcc\obj/App/Pluto-Switch3-V1.0/bc26_init.o
                0x001e7020                ATResetModule
 .data.ATQueryState
                0x001e7024        0x4 build\gcc\obj/App/Pluto-Switch3-V1.0/bc26_init.o
                0x001e7024                ATQueryState
 .data.ATReportConnectState
                0x001e7028        0x4 build\gcc\obj/App/Pluto-Switch3-V1.0/bc26_init.o
                0x001e7028                ATReportConnectState
 .data.ATQueryCPin
                0x001e702c        0x4 build\gcc\obj/App/Pluto-Switch3-V1.0/bc26_init.o
                0x001e702c                ATQueryCPin
 .data.ATSetPDN
                0x001e7030        0x4 build\gcc\obj/App/Pluto-Switch3-V1.0/bc26_init.o
                0x001e7030                ATSetPDN
 .data.ATQueryAttached
                0x001e7034        0x4 build\gcc\obj/App/Pluto-Switch3-V1.0/bc26_init.o
                0x001e7034                ATQueryAttached
 .data.ATQueryCFun
                0x001e7038        0x4 build\gcc\obj/App/Pluto-Switch3-V1.0/bc26_init.o
                0x001e7038                ATQueryCFun
 .data.ATQueryRSSI
                0x001e703c        0x4 build\gcc\obj/App/Pluto-Switch3-V1.0/bc26_init.o
                0x001e703c                ATQueryRSSI
 .data.ATQueryPDN
                0x001e7040        0x4 build\gcc\obj/App/Pluto-Switch3-V1.0/bc26_init.o
                0x001e7040                ATQueryPDN
 .data.socketID
                0x001e7044        0x4 build\gcc\obj/pluto/socket/udp_socket.o
 .data.myMutex  0x001e7048        0x4 pluto/plutolib.a(nwk_common.o)
 .data.myMutex  0x001e704c        0x4 pluto/plutolib.a(osCore.o)
 .data.Srandx   0x001e7050        0x4 pluto/plutolib.a(osLibc.o)
                0x001e7050                Srandx
 .data.api_notsup
                0x001e7054       0x18 libs/gcc/app_start.lib(ql_func.o)
                0x001e7054                api_notsup
 .data.g_ril_auxTaskId
                0x001e706c        0x4 libs/gcc/app_start.lib(ril_aux.o)
                0x001e706c                g_ril_auxTaskId
 .data.m_atTimer
                0x001e7070        0xc libs/gcc/app_start.lib(ril_main.o)
 .data.m_thisTaskId
                0x001e707c        0x4 libs/gcc/app_start.lib(ril_main.o)
 .data.__ctype_ptr__
                0x001e7080        0x4 tools\gcc\win\gcc-arm-none-eabi/arm-none-eabi/lib/armv7e-m/fpu/libc.a(lib_a-ctype_.o)
                0x001e7080                __ctype_ptr__
 *fill*         0x001e7084        0x4 
 .data.impure_data
                0x001e7088      0x428 tools\gcc\win\gcc-arm-none-eabi/arm-none-eabi/lib/armv7e-m/fpu/libc.a(lib_a-impure.o)
 .data._impure_ptr
                0x001e74b0        0x4 tools\gcc\win\gcc-arm-none-eabi/arm-none-eabi/lib/armv7e-m/fpu/libc.a(lib_a-impure.o)
                0x001e74b0                _impure_ptr
 *(.data)
                0x001e74b4                _edata = .

.igot.plt       0x001e74b4        0x0 load address 0x082aae1c
 .igot.plt      0x00000000        0x0 build\gcc\obj/App/Pluto-Switch3-V1.0/config/custom_sys_cfg.o

.bss            0x001e74b4     0x2770 load address 0x082aae1c
                0x001e74b4                __bss_start__ = .
                0x001e74b4                . = ALIGN (0x4)
 *(.bss)
 *(.bss.*)
 .bss.m_iErrCode
                0x001e74b4        0x4 build\gcc\obj/ril/src/ril_atResponse.o
 .bss.g_ONENET_PUSH_RECV_MODE
                0x001e74b8        0x1 build\gcc\obj/ril/src/ril_onenet.o
                0x001e74b8                g_ONENET_PUSH_RECV_MODE
 .bss.recv_data_format
                0x001e74b9        0x1 build\gcc\obj/ril/src/ril_socket.o
                0x001e74b9                recv_data_format
 .bss.send_data_format
                0x001e74ba        0x1 build\gcc\obj/ril/src/ril_socket.o
                0x001e74ba                send_data_format
 *fill*         0x001e74bb        0x1 
 .bss.onenet_urc_param
                0x001e74bc      0x4ec build\gcc\obj/ril/src/ril_urc.o
                0x001e74bc                onenet_urc_param
 .bss.lwm2m_urc_param
                0x001e79a8      0x4c8 build\gcc\obj/ril/src/ril_urc.o
                0x001e79a8                lwm2m_urc_param
 .bss.socket_recv_param
                0x001e7e70      0x4bc build\gcc\obj/ril/src/ril_urc.o
                0x001e7e70                socket_recv_param
 .bss.temperature
                0x001e832c        0x4 build\gcc\obj/App/Pluto-Switch3-V1.0/app_task.o
 .bss.flag.5177
                0x001e8330        0x1 build\gcc\obj/App/Pluto-Switch3-V1.0/app_task.o
 *fill*         0x001e8331        0x3 
 .bss.last_humitidy
                0x001e8334        0x4 build\gcc\obj/App/Pluto-Switch3-V1.0/app_task.o
 .bss.online_flag.5232
                0x001e8338        0x1 build\gcc\obj/App/Pluto-Switch3-V1.0/app_task.o
 .bss.value_str.5203
                0x001e8339       0x40 build\gcc\obj/App/Pluto-Switch3-V1.0/app_task.o
 *fill*         0x001e8379        0x3 
 .bss.humidity  0x001e837c        0x4 build\gcc\obj/App/Pluto-Switch3-V1.0/app_task.o
 .bss.last_temperature
                0x001e8380        0x4 build\gcc\obj/App/Pluto-Switch3-V1.0/app_task.o
 .bss.state     0x001e8384        0x1 build\gcc\obj/App/Pluto-Switch3-V1.0/bc26_init.o
 .bss.uart_buf  0x001e8385      0x400 build\gcc\obj/App/Pluto-Switch3-V1.0/factory_settings.o
 *fill*         0x001e8785        0x3 
 .bss.Button    0x001e8788        0xc build\gcc\obj/App/Pluto-Switch3-V1.0/hal_key.o
                0x001e8788                Button
 .bss.Led       0x001e8794       0x14 build\gcc\obj/App/Pluto-Switch3-V1.0/hal_led.o
                0x001e8794                Led
 .bss.uart_recieve_cb
                0x001e87a8        0x4 build\gcc\obj/App/Pluto-Switch3-V1.0/hal_MT.o
 .bss.uart_rx_lock
                0x001e87ac        0x1 build\gcc\obj/App/Pluto-Switch3-V1.0/hal_MT.o
 *fill*         0x001e87ad        0x1 
 .bss.uart_rx   0x001e87ae      0x404 build\gcc\obj/App/Pluto-Switch3-V1.0/hal_MT.o
 .bss.init.4525
                0x001e8bb2        0x1 build\gcc\obj/App/Pluto-Switch3-V1.0/hal_uart.o
 *fill*         0x001e8bb3        0x1 
 .bss.blink_led
                0x001e8bb4        0x4 build\gcc\obj/pluto/pluto_entry.o
                0x001e8bb4                blink_led
 .bss.init_flag.5034
                0x001e8bb8        0x1 build\gcc\obj/pluto/fs/pluto_file_system.o
 *fill*         0x001e8bb9        0x3 
 .bss.ep        0x001e8bbc        0x4 build\gcc\obj/pluto/json/cJSON.o
 .bss.state     0x001e8bc0        0x1 build\gcc\obj/pluto/socket/udp_socket.o
 *fill*         0x001e8bc1        0x3 
 .bss.socket_param_t
                0x001e8bc4       0x14 build\gcc\obj/pluto/socket/udp_socket.o
 .bss.SvrIP     0x001e8bd8       0x40 build\gcc\obj/pluto/socket/udp_socket.o
 .bss.SvrPort   0x001e8c18        0x2 build\gcc\obj/pluto/socket/udp_socket.o
 *fill*         0x001e8c1a        0x2 
 .bss.spi_fs    0x001e8c1c       0x80 build\gcc\obj/pluto/spiffs/fs_entry.o
 .bss.spiffs_buffer
                0x001e8c9c        0x4 build\gcc\obj/pluto/spiffs/fs_entry.o
 .bss.spi_fs_cfg
                0x001e8ca0       0x20 build\gcc\obj/pluto/spiffs/fs_entry.o
 .bss.w25qxx    0x001e8cc0       0x28 build\gcc\obj/pluto/spiffs/w25qxx.o
                0x001e8cc0                w25qxx
 .bss.plutoNIB  0x001e8ce8       0xc4 pluto/plutolib.a(pluto_common.o)
 .bss.pluto_read_rssi_cb
                0x001e8dac        0x4 pluto/plutolib.a(pluto_common.o)
 .bss.sseq      0x001e8db0        0x2 pluto/plutolib.a(pluto_common.o)
 *fill*         0x001e8db2        0x2 
 .bss.myListener
                0x001e8db4        0x8 pluto/plutolib.a(aps_common.o)
                0x001e8db4                myListener
 .bss.send_queue
                0x001e8dbc        0x4 pluto/plutolib.a(aps_output.o)
 .bss.task_active
                0x001e8dc0        0x1 pluto/plutolib.a(aps_output.o)
 .bss.FetchID   0x001e8dc1        0x1 pluto/plutolib.a(aps_user.o)
 *fill*         0x001e8dc2        0x2 
 .bss.user_table
                0x001e8dc4       0x30 pluto/plutolib.a(aps_user.o)
 .bss.flag.5132
                0x001e8df4        0x1 pluto/plutolib.a(aps_user.o)
 .bss.task_active
                0x001e8df5        0x1 pluto/plutolib.a(lcl_output.o)
 *fill*         0x001e8df6        0x2 
 .bss.pSend     0x001e8df8        0x4 pluto/plutolib.a(lcl_output.o)
 .bss.user_name
                0x001e8dfc        0x8 pluto/plutolib.a(login.o)
 .bss.user_psw  0x001e8e04       0x10 pluto/plutolib.a(login.o)
 .bss.state_machine
                0x001e8e14       0x14 pluto/plutolib.a(login.o)
 .bss.nwk_adapter
                0x001e8e28        0x4 pluto/plutolib.a(nwk_common.o)
                0x001e8e28                nwk_adapter
 .bss._NWK_NIB  0x001e8e2c       0x24 pluto/plutolib.a(nwk_nib.o)
                0x001e8e2c                _NWK_NIB
 .bss.nwk_task_active
                0x001e8e50        0x1 pluto/plutolib.a(nwk_output.o)
                0x001e8e50                nwk_task_active
 *fill*         0x001e8e51        0x3 
 .bss.pNwkSend  0x001e8e54        0x4 pluto/plutolib.a(nwk_output.o)
                0x001e8e54                pNwkSend
 .bss.nwk_seq.5140
                0x001e8e58        0x2 pluto/plutolib.a(nwk_output.o)
 *fill*         0x001e8e5a        0x2 
 .bss.nwk_pre_input_count
                0x001e8e5c        0x4 pluto/plutolib.a(nwk_pre_input.o)
 .bss.pnwk_pre_input_buffer
                0x001e8e60        0x4 pluto/plutolib.a(nwk_pre_input.o)
 .bss.InfoTable
                0x001e8e64      0x118 pluto/plutolib.a(nwk_route.o)
 .bss.pMsgBox   0x001e8f7c        0x4 pluto/plutolib.a(osCore.o)
 .bss.flag.4503
                0x001e8f80        0x1 pluto/plutolib.a(osLibc.o)
 *fill*         0x001e8f81        0x3 
 .bss.osTick    0x001e8f84        0xc pluto/plutolib.a(osTimer.o)
 .bss.posTimerList
                0x001e8f90        0x4 pluto/plutolib.a(osTimer.o)
                0x001e8f90                posTimerList
 .bss.dbg_buf   0x001e8f94      0x400 pluto/plutolib.a(osTrace.o)
 .bss.dbg_print
                0x001e9394        0x4 pluto/plutolib.a(osTrace.o)
 .bss.delete_port_cb
                0x001e9398        0x4 pluto/plutolib.a(pdo_describe.o)
 .bss.port_list
                0x001e939c        0x4 pluto/plutolib.a(pdo_describe.o)
 .bss.device_keys
                0x001e93a0        0x4 pluto/plutolib.a(pdo_keys.o)
 .bss._nib      0x001e93a4       0x18 pluto/plutolib.a(pdo_nib.o)
 .bss.pRecordHistory
                0x001e93bc        0x4 pluto/plutolib.a(pdo_record.o)
 .bss.pRecordAlarm
                0x001e93c0        0x4 pluto/plutolib.a(pdo_record.o)
 .bss.pcount    0x001e93c4        0x4 pluto/plutolib.a(scene_core.o)
 .bss.pVMTCB    0x001e93c8        0x4 pluto/plutolib.a(scene_core.o)
 .bss.seq.4597  0x001e93cc        0x2 pluto/plutolib.a(lcl_common.o)
 *fill*         0x001e93ce        0x2 
 .bss.repeat_table
                0x001e93d0      0x140 pluto/plutolib.a(nwk_input.o)
 .bss.block_info
                0x001e9510        0x8 pluto/plutolib.a(nwk_input.o)
 .bss.block_list
                0x001e9518        0x4 pluto/plutolib.a(nwk_input.o)
 .bss.ann_key   0x001e951c        0x1 pluto/plutolib.a(pdo.o)
 *fill*         0x001e951d        0x3 
 .bss.device_indcation_cb
                0x001e9520        0x4 pluto/plutolib.a(pdo.o)
 .bss.port_permit_join_flag
                0x001e9524        0x1 pluto/plutolib.a(pdo.o)
 *fill*         0x001e9525        0x3 
 .bss.permit_join_cb
                0x001e9528        0x4 pluto/plutolib.a(pdo.o)
 .bss.ann_cnt   0x001e952c        0x1 pluto/plutolib.a(pdo.o)
 *fill*         0x001e952d        0x3 
 .bss.pRead_task
                0x001e9530        0x4 pluto/plutolib.a(pdo_file_system.o)
 .bss.name.5646
                0x001e9534       0x80 pluto/plutolib.a(pdo_file_system.o)
 .bss.m_GPIO_SetDirection
                0x001e95b4        0x4 libs/gcc/app_start.lib(gpio.o)
                0x001e95b4                m_GPIO_SetDirection
 .bss.m_GPIO_Init
                0x001e95b8        0x4 libs/gcc/app_start.lib(gpio.o)
                0x001e95b8                m_GPIO_Init
 .bss.m_GPIO_GetLevel
                0x001e95bc        0x4 libs/gcc/app_start.lib(gpio.o)
                0x001e95bc                m_GPIO_GetLevel
 .bss.m_GPIO_SetLevel
                0x001e95c0        0x4 libs/gcc/app_start.lib(gpio.o)
                0x001e95c0                m_GPIO_SetLevel
 .bss.m_MEM_Alloc
                0x001e95c4        0x4 libs/gcc/app_start.lib(memory.o)
 .bss.m_MEM_Free
                0x001e95c8        0x4 libs/gcc/app_start.lib(memory.o)
 .bss.m_create_api_hash
                0x001e95cc        0x4 libs/gcc/app_start.lib(ql_func.o)
                0x001e95cc                m_create_api_hash
 .bss.m_get_api_ptr
                0x001e95d0        0x4 libs/gcc/app_start.lib(ql_func.o)
                0x001e95d0                m_get_api_ptr
 .bss.Ql_sscanf
                0x001e95d4        0x4 libs/gcc/app_start.lib(ql_main.o)
                0x001e95d4                Ql_sscanf
 .bss.runinfo   0x001e95d8        0x8 libs/gcc/app_start.lib(ql_main.o)
                0x001e95d8                runinfo
 .bss.Ql_Debug_Trace
                0x001e95e0        0x4 libs/gcc/app_start.lib(ql_main.o)
                0x001e95e0                Ql_Debug_Trace
 .bss.Ql_sprintf
                0x001e95e4        0x4 libs/gcc/app_start.lib(ql_main.o)
                0x001e95e4                Ql_sprintf
 .bss.Ql_snprintf
                0x001e95e8        0x4 libs/gcc/app_start.lib(ql_main.o)
                0x001e95e8                Ql_snprintf
 .bss.init_size
                0x001e95ec        0x4 libs/gcc/app_start.lib(ql_main.o)
 .bss.g_ril_auxTaskReady
                0x001e95f0        0x1 libs/gcc/app_start.lib(ril_aux.o)
                0x001e95f0                g_ril_auxTaskReady
 *fill*         0x001e95f1        0x3 
 .bss.m_pATRspLineBuf
                0x001e95f4        0x4 libs/gcc/app_start.lib(ril_main.o)
 .bss.m_strATCmd
                0x001e95f8      0x578 libs/gcc/app_start.lib(ril_main.o)
 .bss.m_IsATHandling
                0x001e9b70        0x1 libs/gcc/app_start.lib(ril_main.o)
 *fill*         0x001e9b71        0x3 
 .bss.m_data    0x001e9b74        0x8 libs/gcc/app_start.lib(ril_main.o)
 .bss.m_isRILInited
                0x001e9b7c        0x1 libs/gcc/app_start.lib(ril_main.o)
 *fill*         0x001e9b7d        0x3 
 .bss.m_nATRspBufLen
                0x001e9b80        0x4 libs/gcc/app_start.lib(ril_main.o)
 .bss.m_nAtMutexId
                0x001e9b84        0x4 libs/gcc/app_start.lib(ril_main.o)
 .bss.m_userdata
                0x001e9b88        0x4 libs/gcc/app_start.lib(ril_main.o)
 .bss.g_nEventGrpId
                0x001e9b8c        0x4 libs/gcc/app_start.lib(ril_main.o)
 .bss.m_pATRspBuffer
                0x001e9b90        0x4 libs/gcc/app_start.lib(ril_main.o)
 .bss.m_nATErrCode
                0x001e9b94        0x4 libs/gcc/app_start.lib(ril_main.o)
 .bss.m_atRsp_callback
                0x001e9b98        0x4 libs/gcc/app_start.lib(ril_main.o)
 .bss.m_nATRsp_Result
                0x001e9b9c        0x4 libs/gcc/app_start.lib(ril_main.o)
 .bss.m_SPI_Config
                0x001e9ba0        0x4 libs/gcc/app_start.lib(spi.o)
                0x001e9ba0                m_SPI_Config
 .bss.m_SPI_Init
                0x001e9ba4        0x4 libs/gcc/app_start.lib(spi.o)
                0x001e9ba4                m_SPI_Init
 .bss.m_SPI_Write
                0x001e9ba8        0x4 libs/gcc/app_start.lib(spi.o)
                0x001e9ba8                m_SPI_Write
 .bss.m_SPI_WriteRead
                0x001e9bac        0x4 libs/gcc/app_start.lib(spi.o)
                0x001e9bac                m_SPI_WriteRead
 .bss.m_strncmp
                0x001e9bb0        0x4 libs/gcc/app_start.lib(stdlib_func.o)
 .bss.m_strncpy
                0x001e9bb4        0x4 libs/gcc/app_start.lib(stdlib_func.o)
 .bss.m_memset  0x001e9bb8        0x4 libs/gcc/app_start.lib(stdlib_func.o)
 .bss.m_memcpy  0x001e9bbc        0x4 libs/gcc/app_start.lib(stdlib_func.o)
 .bss.m_strcpy  0x001e9bc0        0x4 libs/gcc/app_start.lib(stdlib_func.o)
 .bss.m_memcmp  0x001e9bc4        0x4 libs/gcc/app_start.lib(stdlib_func.o)
 .bss.m_strlen  0x001e9bc8        0x4 libs/gcc/app_start.lib(stdlib_func.o)
 .bss.m_strcmp  0x001e9bcc        0x4 libs/gcc/app_start.lib(stdlib_func.o)
 .bss.m_strstr  0x001e9bd0        0x4 libs/gcc/app_start.lib(stdlib_func.o)
 .bss.m_strchr  0x001e9bd4        0x4 libs/gcc/app_start.lib(stdlib_func.o)
 .bss.m_Sleep   0x001e9bd8        0x4 libs/gcc/app_start.lib(system.o)
 .bss.m_Reset   0x001e9bdc        0x4 libs/gcc/app_start.lib(system.o)
 .bss.m_GetvFunc_Init_Status
                0x001e9be0        0x4 libs/gcc/app_start.lib(system.o)
 .bss.m_OS_CreateEvent
                0x001e9be4        0x4 libs/gcc/app_start.lib(taskMngt.o)
 .bss.m_OS_CreateMutex
                0x001e9be8        0x4 libs/gcc/app_start.lib(taskMngt.o)
 .bss.m_OS_SetEvent
                0x001e9bec        0x4 libs/gcc/app_start.lib(taskMngt.o)
 .bss.m_OS_WaitEvent
                0x001e9bf0        0x4 libs/gcc/app_start.lib(taskMngt.o)
 .bss.m_OS_TakeMutex
                0x001e9bf4        0x4 libs/gcc/app_start.lib(taskMngt.o)
 .bss.m_OS_GiveMutex
                0x001e9bf8        0x4 libs/gcc/app_start.lib(taskMngt.o)
 .bss.m_OS_SendMessage
                0x001e9bfc        0x4 libs/gcc/app_start.lib(taskMngt.o)
 .bss.m_OS_GetMessage
                0x001e9c00        0x4 libs/gcc/app_start.lib(taskMngt.o)
 .bss.m_RIL_request_custom_command
                0x001e9c04        0x4 libs/gcc/app_start.lib(taskMngt.o)
 .bss.m_Timer_Register
                0x001e9c08        0x4 libs/gcc/app_start.lib(timer.o)
 .bss.m_Timer_Stop
                0x001e9c0c        0x4 libs/gcc/app_start.lib(timer.o)
 .bss.m_Timer_Start
                0x001e9c10        0x4 libs/gcc/app_start.lib(timer.o)
 .bss.m_Ql_UART_Open
                0x001e9c14        0x4 libs/gcc/app_start.lib(uart.o)
 .bss.m_Ql_UART_Read
                0x001e9c18        0x4 libs/gcc/app_start.lib(uart.o)
 .bss.m_Ql_UART_Register
                0x001e9c1c        0x4 libs/gcc/app_start.lib(uart.o)
 .bss.m_Ql_UART_Write
                0x001e9c20        0x4 libs/gcc/app_start.lib(uart.o)
                0x001e9c24                __bss_end__ = .
LOAD build\gcc\obj/App/Pluto-Switch3-V1.0/config/custom_sys_cfg.o
LOAD build\gcc\obj/App/Pluto-Switch3-V1.0/config/sys_config.o
LOAD build\gcc\obj/ril/src/ril_atResponse.o
LOAD build\gcc\obj/ril/src/ril_dfota.o
LOAD build\gcc\obj/ril/src/ril_init.o
LOAD build\gcc\obj/ril/src/ril_lwm2m.o
LOAD build\gcc\obj/ril/src/ril_network.o
LOAD build\gcc\obj/ril/src/ril_onenet.o
LOAD build\gcc\obj/ril/src/ril_socket.o
LOAD build\gcc\obj/ril/src/ril_system.o
LOAD build\gcc\obj/ril/src/ril_urc.o
LOAD build\gcc\obj/ril/src/ril_util.o
LOAD build\gcc\obj/example/example_adc.o
LOAD build\gcc\obj/example/example_dfota_http.o
LOAD build\gcc\obj/example/example_eint.o
LOAD build\gcc\obj/example/example_float_math.o
LOAD build\gcc\obj/example/example_gpio.o
LOAD build\gcc\obj/example/example_iic.o
LOAD build\gcc\obj/example/example_lwm2m.o
LOAD build\gcc\obj/example/example_memory.o
LOAD build\gcc\obj/example/example_multitask.o
LOAD build\gcc\obj/example/example_onenet.o
LOAD build\gcc\obj/example/example_pwm.o
LOAD build\gcc\obj/example/example_rtc.o
LOAD build\gcc\obj/example/example_spi.o
LOAD build\gcc\obj/example/example_system.o
LOAD build\gcc\obj/example/example_tcpclient.o
LOAD build\gcc\obj/example/example_time.o
LOAD build\gcc\obj/example/example_timer.o
LOAD build\gcc\obj/example/example_udpclient.o
LOAD build\gcc\obj/example/example_watchdog.o
LOAD build\gcc\obj/example/utility.o
LOAD build\gcc\obj/App/Pluto-Switch3-V1.0/app_task.o
LOAD build\gcc\obj/App/Pluto-Switch3-V1.0/bc26_init.o
LOAD build\gcc\obj/App/Pluto-Switch3-V1.0/factory_settings.o
LOAD build\gcc\obj/App/Pluto-Switch3-V1.0/Hal_HTU.o
LOAD build\gcc\obj/App/Pluto-Switch3-V1.0/hal_i2c.o
LOAD build\gcc\obj/App/Pluto-Switch3-V1.0/hal_key.o
LOAD build\gcc\obj/App/Pluto-Switch3-V1.0/hal_lamp.o
LOAD build\gcc\obj/App/Pluto-Switch3-V1.0/hal_led.o
LOAD build\gcc\obj/App/Pluto-Switch3-V1.0/hal_MT.o
LOAD build\gcc\obj/App/Pluto-Switch3-V1.0/hal_uart.o
LOAD build\gcc\obj/App/Pluto-Switch3-V1.0/main.o
LOAD build\gcc\obj/pluto/pluto_entry.o
LOAD build\gcc\obj/pluto/fs/pluto_file_system.o
LOAD build\gcc\obj/pluto/json/cJSON.o
LOAD build\gcc\obj/pluto/socket/tcp_socket.o
LOAD build\gcc\obj/pluto/socket/udp_socket.o
LOAD build\gcc\obj/pluto/spiffs/fs_entry.o
LOAD build\gcc\obj/pluto/spiffs/hal_spi.o
LOAD build\gcc\obj/pluto/spiffs/spiffs_cache.o
LOAD build\gcc\obj/pluto/spiffs/spiffs_check.o
LOAD build\gcc\obj/pluto/spiffs/spiffs_flash_functions.o
LOAD build\gcc\obj/pluto/spiffs/spiffs_gc.o
LOAD build\gcc\obj/pluto/spiffs/spiffs_hydrogen.o
LOAD build\gcc\obj/pluto/spiffs/spiffs_nucleus.o
LOAD build\gcc\obj/pluto/spiffs/w25qxx.o
LOAD pluto/plutolib.a
LOAD libs/gcc/app_start.lib
LOAD tools\gcc\win\gcc-arm-none-eabi/arm-none-eabi/lib/armv7e-m/fpu/libm.a
LOAD tools\gcc\win\gcc-arm-none-eabi/arm-none-eabi/lib/armv7e-m/fpu/libc.a
LOAD tools\gcc\win\gcc-arm-none-eabi/lib/gcc/arm-none-eabi/4.8.3/armv7e-m/fpu/libgcc.a
OUTPUT(build\gcc/APPGS3MDM32A01.elf elf32-littlearm)

.debug_info     0x00000000    0x41c87
 .debug_info    0x00000000      0x240 build\gcc\obj/App/Pluto-Switch3-V1.0/config/custom_sys_cfg.o
 .debug_info    0x00000240      0x29a build\gcc\obj/App/Pluto-Switch3-V1.0/config/sys_config.o
 .debug_info    0x000004da      0x300 build\gcc\obj/ril/src/ril_atResponse.o
 .debug_info    0x000007da      0x493 build\gcc\obj/ril/src/ril_dfota.o
 .debug_info    0x00000c6d       0xfc build\gcc\obj/ril/src/ril_init.o
 .debug_info    0x00000d69     0x143c build\gcc\obj/ril/src/ril_lwm2m.o
 .debug_info    0x000021a5      0x516 build\gcc\obj/ril/src/ril_network.o
 .debug_info    0x000026bb     0x1875 build\gcc\obj/ril/src/ril_onenet.o
 .debug_info    0x00003f30     0x11bf build\gcc\obj/ril/src/ril_socket.o
 .debug_info    0x000050ef     0x14c0 build\gcc\obj/ril/src/ril_system.o
 .debug_info    0x000065af     0x2156 build\gcc\obj/ril/src/ril_urc.o
 .debug_info    0x00008705      0x5a6 build\gcc\obj/ril/src/ril_util.o
 .debug_info    0x00008cab     0x11b3 build\gcc\obj/App/Pluto-Switch3-V1.0/app_task.o
 .debug_info    0x00009e5e      0xf57 build\gcc\obj/App/Pluto-Switch3-V1.0/bc26_init.o
 .debug_info    0x0000adb5      0x704 build\gcc\obj/App/Pluto-Switch3-V1.0/factory_settings.o
 .debug_info    0x0000b4b9      0x27f build\gcc\obj/App/Pluto-Switch3-V1.0/Hal_HTU.o
 .debug_info    0x0000b738      0x4b9 build\gcc\obj/App/Pluto-Switch3-V1.0/hal_i2c.o
 .debug_info    0x0000bbf1      0x28b build\gcc\obj/App/Pluto-Switch3-V1.0/hal_key.o
 .debug_info    0x0000be7c      0x2f9 build\gcc\obj/App/Pluto-Switch3-V1.0/hal_lamp.o
 .debug_info    0x0000c175      0x38f build\gcc\obj/App/Pluto-Switch3-V1.0/hal_led.o
 .debug_info    0x0000c504      0xad4 build\gcc\obj/App/Pluto-Switch3-V1.0/hal_MT.o
 .debug_info    0x0000cfd8      0x659 build\gcc\obj/App/Pluto-Switch3-V1.0/hal_uart.o
 .debug_info    0x0000d631      0x134 build\gcc\obj/App/Pluto-Switch3-V1.0/main.o
 .debug_info    0x0000d765      0x418 build\gcc\obj/pluto/pluto_entry.o
 .debug_info    0x0000db7d     0x1409 build\gcc\obj/pluto/fs/pluto_file_system.o
 .debug_info    0x0000ef86     0x21ac build\gcc\obj/pluto/json/cJSON.o
 .debug_info    0x00011132      0x374 build\gcc\obj/pluto/socket/tcp_socket.o
 .debug_info    0x000114a6      0xad4 build\gcc\obj/pluto/socket/udp_socket.o
 .debug_info    0x00011f7a      0xb8b build\gcc\obj/pluto/spiffs/fs_entry.o
 .debug_info    0x00012b05      0x2d1 build\gcc\obj/pluto/spiffs/hal_spi.o
 .debug_info    0x00012dd6      0xe65 build\gcc\obj/pluto/spiffs/spiffs_cache.o
 .debug_info    0x00013c3b      0x405 build\gcc\obj/pluto/spiffs/spiffs_flash_functions.o
 .debug_info    0x00014040     0x104f build\gcc\obj/pluto/spiffs/spiffs_gc.o
 .debug_info    0x0001508f     0x2660 build\gcc\obj/pluto/spiffs/spiffs_hydrogen.o
 .debug_info    0x000176ef     0x3a73 build\gcc\obj/pluto/spiffs/spiffs_nucleus.o
 .debug_info    0x0001b162     0x18f3 build\gcc\obj/pluto/spiffs/w25qxx.o
 .debug_info    0x0001ca55      0x544 pluto/plutolib.a(pluto.o)
 .debug_info    0x0001cf99      0x6b2 pluto/plutolib.a(pluto_common.o)
 .debug_info    0x0001d64b      0x5e1 pluto/plutolib.a(aps_common.o)
 .debug_info    0x0001dc2c     0x12ab pluto/plutolib.a(aps_output.o)
 .debug_info    0x0001eed7      0x5f5 pluto/plutolib.a(aps_user.o)
 .debug_info    0x0001f4cc     0x100a pluto/plutolib.a(lcl_output.o)
 .debug_info    0x000204d6      0xf3d pluto/plutolib.a(login.o)
 .debug_info    0x00021413      0x2fc pluto/plutolib.a(nwk_common.o)
 .debug_info    0x0002170f      0x600 pluto/plutolib.a(nwk_nib.o)
 .debug_info    0x00021d0f     0x14ca pluto/plutolib.a(nwk_output.o)
 .debug_info    0x000231d9      0x504 pluto/plutolib.a(nwk_pre_input.o)
 .debug_info    0x000236dd      0x6ef pluto/plutolib.a(nwk_route.o)
 .debug_info    0x00023dcc      0x425 pluto/plutolib.a(osCore.o)
 .debug_info    0x000241f1      0xf64 pluto/plutolib.a(osLibc.o)
 .debug_info    0x00025155      0x98c pluto/plutolib.a(osTimer.o)
 .debug_info    0x00025ae1      0x2f1 pluto/plutolib.a(osTrace.o)
 .debug_info    0x00025dd2     0x12c4 pluto/plutolib.a(printf.o)
 .debug_info    0x00027096     0x3a18 pluto/plutolib.a(pdo_describe.o)
 .debug_info    0x0002aaae      0x506 pluto/plutolib.a(pdo_keys.o)
 .debug_info    0x0002afb4      0x434 pluto/plutolib.a(pdo_nib.o)
 .debug_info    0x0002b3e8      0xc31 pluto/plutolib.a(pdo_record.o)
 .debug_info    0x0002c019      0xea9 pluto/plutolib.a(pdo_scene.o)
 .debug_info    0x0002cec2     0x10bf pluto/plutolib.a(pdo_server.o)
 .debug_info    0x0002df81      0x5b5 pluto/plutolib.a(pdo_update.o)
 .debug_info    0x0002e536      0xb37 pluto/plutolib.a(scene.o)
 .debug_info    0x0002f06d     0x15b8 pluto/plutolib.a(scene_core.o)
 .debug_info    0x00030625      0xf60 pluto/plutolib.a(scene_do.o)
 .debug_info    0x00031585      0xa05 pluto/plutolib.a(scene_lib.o)
 .debug_info    0x00031f8a      0x76e pluto/plutolib.a(scene_message.o)
 .debug_info    0x000326f8      0xddb pluto/plutolib.a(scene_reason.o)
 .debug_info    0x000334d3       0xc0 pluto/plutolib.a(aID.o)
 .debug_info    0x00033593      0xb77 pluto/plutolib.a(aps_input.o)
 .debug_info    0x0003410a      0x32b pluto/plutolib.a(lcl_common.o)
 .debug_info    0x00034435      0x501 pluto/plutolib.a(lcl_crypto.o)
 .debug_info    0x00034936     0x1428 pluto/plutolib.a(nwk_input.o)
 .debug_info    0x00035d5e      0xdb9 pluto/plutolib.a(pdo.o)
 .debug_info    0x00036b17     0x15a2 pluto/plutolib.a(pdo_file_system.o)
 .debug_info    0x000380b9      0x977 pluto/plutolib.a(pdo_utb.o)
 .debug_info    0x00038a30      0xc8e pluto/plutolib.a(lcl_aes.o)
 .debug_info    0x000396be      0xa16 pluto/plutolib.a(lcl_input.o)
 .debug_info    0x0003a0d4      0x9b8 libs/gcc/app_start.lib(gpio.o)
 .debug_info    0x0003aa8c      0x24e libs/gcc/app_start.lib(memory.o)
 .debug_info    0x0003acda      0x9b2 libs/gcc/app_start.lib(ql_func.o)
 .debug_info    0x0003b68c      0x716 libs/gcc/app_start.lib(ql_main.o)
 .debug_info    0x0003bda2      0x19b libs/gcc/app_start.lib(ril_aux.o)
 .debug_info    0x0003bf3d     0x123e libs/gcc/app_start.lib(ril_main.o)
 .debug_info    0x0003d17b      0xa49 libs/gcc/app_start.lib(spi.o)
 .debug_info    0x0003dbc4     0x12eb libs/gcc/app_start.lib(stdlib_func.o)
 .debug_info    0x0003eeaf      0x6e5 libs/gcc/app_start.lib(system.o)
 .debug_info    0x0003f594     0x119c libs/gcc/app_start.lib(taskMngt.o)
 .debug_info    0x00040730      0x9f8 libs/gcc/app_start.lib(timer.o)
 .debug_info    0x00041128      0xaf0 libs/gcc/app_start.lib(uart.o)
 .debug_info    0x00041c18       0x6f libs/gcc/app_start.lib(ocpu_init.o)

.debug_abbrev   0x00000000     0xb5e3
 .debug_abbrev  0x00000000       0xb2 build\gcc\obj/App/Pluto-Switch3-V1.0/config/custom_sys_cfg.o
 .debug_abbrev  0x000000b2       0xc2 build\gcc\obj/App/Pluto-Switch3-V1.0/config/sys_config.o
 .debug_abbrev  0x00000174      0x178 build\gcc\obj/ril/src/ril_atResponse.o
 .debug_abbrev  0x000002ec      0x18e build\gcc\obj/ril/src/ril_dfota.o
 .debug_abbrev  0x0000047a       0x86 build\gcc\obj/ril/src/ril_init.o
 .debug_abbrev  0x00000500      0x296 build\gcc\obj/ril/src/ril_lwm2m.o
 .debug_abbrev  0x00000796      0x1dc build\gcc\obj/ril/src/ril_network.o
 .debug_abbrev  0x00000972      0x2ee build\gcc\obj/ril/src/ril_onenet.o
 .debug_abbrev  0x00000c60      0x283 build\gcc\obj/ril/src/ril_socket.o
 .debug_abbrev  0x00000ee3      0x28a build\gcc\obj/ril/src/ril_system.o
 .debug_abbrev  0x0000116d      0x2f9 build\gcc\obj/ril/src/ril_urc.o
 .debug_abbrev  0x00001466      0x13e build\gcc\obj/ril/src/ril_util.o
 .debug_abbrev  0x000015a4      0x315 build\gcc\obj/App/Pluto-Switch3-V1.0/app_task.o
 .debug_abbrev  0x000018b9      0x240 build\gcc\obj/App/Pluto-Switch3-V1.0/bc26_init.o
 .debug_abbrev  0x00001af9      0x21e build\gcc\obj/App/Pluto-Switch3-V1.0/factory_settings.o
 .debug_abbrev  0x00001d17      0x161 build\gcc\obj/App/Pluto-Switch3-V1.0/Hal_HTU.o
 .debug_abbrev  0x00001e78      0x140 build\gcc\obj/App/Pluto-Switch3-V1.0/hal_i2c.o
 .debug_abbrev  0x00001fb8      0x151 build\gcc\obj/App/Pluto-Switch3-V1.0/hal_key.o
 .debug_abbrev  0x00002109       0xe2 build\gcc\obj/App/Pluto-Switch3-V1.0/hal_lamp.o
 .debug_abbrev  0x000021eb      0x160 build\gcc\obj/App/Pluto-Switch3-V1.0/hal_led.o
 .debug_abbrev  0x0000234b      0x307 build\gcc\obj/App/Pluto-Switch3-V1.0/hal_MT.o
 .debug_abbrev  0x00002652      0x14d build\gcc\obj/App/Pluto-Switch3-V1.0/hal_uart.o
 .debug_abbrev  0x0000279f       0xb4 build\gcc\obj/App/Pluto-Switch3-V1.0/main.o
 .debug_abbrev  0x00002853      0x1f2 build\gcc\obj/pluto/pluto_entry.o
 .debug_abbrev  0x00002a45      0x2e0 build\gcc\obj/pluto/fs/pluto_file_system.o
 .debug_abbrev  0x00002d25      0x463 build\gcc\obj/pluto/json/cJSON.o
 .debug_abbrev  0x00003188      0x1b0 build\gcc\obj/pluto/socket/tcp_socket.o
 .debug_abbrev  0x00003338      0x285 build\gcc\obj/pluto/socket/udp_socket.o
 .debug_abbrev  0x000035bd      0x1e4 build\gcc\obj/pluto/spiffs/fs_entry.o
 .debug_abbrev  0x000037a1       0xeb build\gcc\obj/pluto/spiffs/hal_spi.o
 .debug_abbrev  0x0000388c      0x325 build\gcc\obj/pluto/spiffs/spiffs_cache.o
 .debug_abbrev  0x00003bb1       0xce build\gcc\obj/pluto/spiffs/spiffs_flash_functions.o
 .debug_abbrev  0x00003c7f      0x27d build\gcc\obj/pluto/spiffs/spiffs_gc.o
 .debug_abbrev  0x00003efc      0x41f build\gcc\obj/pluto/spiffs/spiffs_hydrogen.o
 .debug_abbrev  0x0000431b      0x409 build\gcc\obj/pluto/spiffs/spiffs_nucleus.o
 .debug_abbrev  0x00004724      0x285 build\gcc\obj/pluto/spiffs/w25qxx.o
 .debug_abbrev  0x000049a9      0x15e pluto/plutolib.a(pluto.o)
 .debug_abbrev  0x00004b07      0x214 pluto/plutolib.a(pluto_common.o)
 .debug_abbrev  0x00004d1b      0x18d pluto/plutolib.a(aps_common.o)
 .debug_abbrev  0x00004ea8      0x2d9 pluto/plutolib.a(aps_output.o)
 .debug_abbrev  0x00005181      0x219 pluto/plutolib.a(aps_user.o)
 .debug_abbrev  0x0000539a      0x2f1 pluto/plutolib.a(lcl_output.o)
 .debug_abbrev  0x0000568b      0x325 pluto/plutolib.a(login.o)
 .debug_abbrev  0x000059b0      0x115 pluto/plutolib.a(nwk_common.o)
 .debug_abbrev  0x00005ac5      0x19b pluto/plutolib.a(nwk_nib.o)
 .debug_abbrev  0x00005c60      0x36e pluto/plutolib.a(nwk_output.o)
 .debug_abbrev  0x00005fce      0x1f2 pluto/plutolib.a(nwk_pre_input.o)
 .debug_abbrev  0x000061c0      0x185 pluto/plutolib.a(nwk_route.o)
 .debug_abbrev  0x00006345      0x1c7 pluto/plutolib.a(osCore.o)
 .debug_abbrev  0x0000650c      0x2f3 pluto/plutolib.a(osLibc.o)
 .debug_abbrev  0x000067ff      0x280 pluto/plutolib.a(osTimer.o)
 .debug_abbrev  0x00006a7f      0x162 pluto/plutolib.a(osTrace.o)
 .debug_abbrev  0x00006be1      0x36c pluto/plutolib.a(printf.o)
 .debug_abbrev  0x00006f4d      0x3b7 pluto/plutolib.a(pdo_describe.o)
 .debug_abbrev  0x00007304      0x1c6 pluto/plutolib.a(pdo_keys.o)
 .debug_abbrev  0x000074ca      0x153 pluto/plutolib.a(pdo_nib.o)
 .debug_abbrev  0x0000761d      0x221 pluto/plutolib.a(pdo_record.o)
 .debug_abbrev  0x0000783e      0x2c1 pluto/plutolib.a(pdo_scene.o)
 .debug_abbrev  0x00007aff      0x27e pluto/plutolib.a(pdo_server.o)
 .debug_abbrev  0x00007d7d      0x184 pluto/plutolib.a(pdo_update.o)
 .debug_abbrev  0x00007f01      0x20b pluto/plutolib.a(scene.o)
 .debug_abbrev  0x0000810c      0x2c4 pluto/plutolib.a(scene_core.o)
 .debug_abbrev  0x000083d0      0x20b pluto/plutolib.a(scene_do.o)
 .debug_abbrev  0x000085db      0x1fe pluto/plutolib.a(scene_lib.o)
 .debug_abbrev  0x000087d9      0x213 pluto/plutolib.a(scene_message.o)
 .debug_abbrev  0x000089ec      0x289 pluto/plutolib.a(scene_reason.o)
 .debug_abbrev  0x00008c75       0x6b pluto/plutolib.a(aID.o)
 .debug_abbrev  0x00008ce0      0x237 pluto/plutolib.a(aps_input.o)
 .debug_abbrev  0x00008f17      0x15d pluto/plutolib.a(lcl_common.o)
 .debug_abbrev  0x00009074      0x191 pluto/plutolib.a(lcl_crypto.o)
 .debug_abbrev  0x00009205      0x327 pluto/plutolib.a(nwk_input.o)
 .debug_abbrev  0x0000952c      0x303 pluto/plutolib.a(pdo.o)
 .debug_abbrev  0x0000982f      0x33e pluto/plutolib.a(pdo_file_system.o)
 .debug_abbrev  0x00009b6d      0x201 pluto/plutolib.a(pdo_utb.o)
 .debug_abbrev  0x00009d6e      0x287 pluto/plutolib.a(lcl_aes.o)
 .debug_abbrev  0x00009ff5      0x22b pluto/plutolib.a(lcl_input.o)
 .debug_abbrev  0x0000a220      0x119 libs/gcc/app_start.lib(gpio.o)
 .debug_abbrev  0x0000a339      0x13f libs/gcc/app_start.lib(memory.o)
 .debug_abbrev  0x0000a478      0x176 libs/gcc/app_start.lib(ql_func.o)
 .debug_abbrev  0x0000a5ee      0x1c5 libs/gcc/app_start.lib(ql_main.o)
 .debug_abbrev  0x0000a7b3      0x10b libs/gcc/app_start.lib(ril_aux.o)
 .debug_abbrev  0x0000a8be      0x3ec libs/gcc/app_start.lib(ril_main.o)
 .debug_abbrev  0x0000acaa      0x119 libs/gcc/app_start.lib(spi.o)
 .debug_abbrev  0x0000adc3      0x248 libs/gcc/app_start.lib(stdlib_func.o)
 .debug_abbrev  0x0000b00b      0x17d libs/gcc/app_start.lib(system.o)
 .debug_abbrev  0x0000b188      0x1df libs/gcc/app_start.lib(taskMngt.o)
 .debug_abbrev  0x0000b367      0x10c libs/gcc/app_start.lib(timer.o)
 .debug_abbrev  0x0000b473      0x15c libs/gcc/app_start.lib(uart.o)
 .debug_abbrev  0x0000b5cf       0x14 libs/gcc/app_start.lib(ocpu_init.o)

.debug_aranges  0x00000000     0x22b0
 .debug_aranges
                0x00000000       0x18 build\gcc\obj/App/Pluto-Switch3-V1.0/config/custom_sys_cfg.o
 .debug_aranges
                0x00000018       0x18 build\gcc\obj/App/Pluto-Switch3-V1.0/config/sys_config.o
 .debug_aranges
                0x00000030       0x30 build\gcc\obj/ril/src/ril_atResponse.o
 .debug_aranges
                0x00000060       0x30 build\gcc\obj/ril/src/ril_dfota.o
 .debug_aranges
                0x00000090       0x28 build\gcc\obj/ril/src/ril_init.o
 .debug_aranges
                0x000000b8       0xa0 build\gcc\obj/ril/src/ril_lwm2m.o
 .debug_aranges
                0x00000158       0x30 build\gcc\obj/ril/src/ril_network.o
 .debug_aranges
                0x00000188       0xa8 build\gcc\obj/ril/src/ril_onenet.o
 .debug_aranges
                0x00000230       0x78 build\gcc\obj/ril/src/ril_socket.o
 .debug_aranges
                0x000002a8       0x78 build\gcc\obj/ril/src/ril_system.o
 .debug_aranges
                0x00000320       0x98 build\gcc\obj/ril/src/ril_urc.o
 .debug_aranges
                0x000003b8       0x48 build\gcc\obj/ril/src/ril_util.o
 .debug_aranges
                0x00000400       0x50 build\gcc\obj/App/Pluto-Switch3-V1.0/app_task.o
 .debug_aranges
                0x00000450       0x50 build\gcc\obj/App/Pluto-Switch3-V1.0/bc26_init.o
 .debug_aranges
                0x000004a0       0x38 build\gcc\obj/App/Pluto-Switch3-V1.0/factory_settings.o
 .debug_aranges
                0x000004d8       0x28 build\gcc\obj/App/Pluto-Switch3-V1.0/Hal_HTU.o
 .debug_aranges
                0x00000500       0x68 build\gcc\obj/App/Pluto-Switch3-V1.0/hal_i2c.o
 .debug_aranges
                0x00000568       0x30 build\gcc\obj/App/Pluto-Switch3-V1.0/hal_key.o
 .debug_aranges
                0x00000598       0x38 build\gcc\obj/App/Pluto-Switch3-V1.0/hal_lamp.o
 .debug_aranges
                0x000005d0       0x38 build\gcc\obj/App/Pluto-Switch3-V1.0/hal_led.o
 .debug_aranges
                0x00000608       0x50 build\gcc\obj/App/Pluto-Switch3-V1.0/hal_MT.o
 .debug_aranges
                0x00000658       0x38 build\gcc\obj/App/Pluto-Switch3-V1.0/hal_uart.o
 .debug_aranges
                0x00000690       0x20 build\gcc\obj/App/Pluto-Switch3-V1.0/main.o
 .debug_aranges
                0x000006b0       0x38 build\gcc\obj/pluto/pluto_entry.o
 .debug_aranges
                0x000006e8       0x88 build\gcc\obj/pluto/fs/pluto_file_system.o
 .debug_aranges
                0x00000770      0x1a8 build\gcc\obj/pluto/json/cJSON.o
 .debug_aranges
                0x00000918       0x40 build\gcc\obj/pluto/socket/tcp_socket.o
 .debug_aranges
                0x00000958       0x48 build\gcc\obj/pluto/socket/udp_socket.o
 .debug_aranges
                0x000009a0       0x88 build\gcc\obj/pluto/spiffs/fs_entry.o
 .debug_aranges
                0x00000a28       0x28 build\gcc\obj/pluto/spiffs/hal_spi.o
 .debug_aranges
                0x00000a50       0x70 build\gcc\obj/pluto/spiffs/spiffs_cache.o
 .debug_aranges
                0x00000ac0       0x30 build\gcc\obj/pluto/spiffs/spiffs_flash_functions.o
 .debug_aranges
                0x00000af0       0x48 build\gcc\obj/pluto/spiffs/spiffs_gc.o
 .debug_aranges
                0x00000b38      0x158 build\gcc\obj/pluto/spiffs/spiffs_hydrogen.o
 .debug_aranges
                0x00000c90      0x140 build\gcc\obj/pluto/spiffs/spiffs_nucleus.o
 .debug_aranges
                0x00000dd0      0x120 build\gcc\obj/pluto/spiffs/w25qxx.o
 .debug_aranges
                0x00000ef0       0x28 pluto/plutolib.a(pluto.o)
 .debug_aranges
                0x00000f18       0xc8 pluto/plutolib.a(pluto_common.o)
 .debug_aranges
                0x00000fe0       0x48 pluto/plutolib.a(aps_common.o)
 .debug_aranges
                0x00001028       0x50 pluto/plutolib.a(aps_output.o)
 .debug_aranges
                0x00001078       0x40 pluto/plutolib.a(aps_user.o)
 .debug_aranges
                0x000010b8       0x68 pluto/plutolib.a(lcl_output.o)
 .debug_aranges
                0x00001120       0x80 pluto/plutolib.a(login.o)
 .debug_aranges
                0x000011a0       0x30 pluto/plutolib.a(nwk_common.o)
 .debug_aranges
                0x000011d0       0xd0 pluto/plutolib.a(nwk_nib.o)
 .debug_aranges
                0x000012a0       0x68 pluto/plutolib.a(nwk_output.o)
 .debug_aranges
                0x00001308       0x28 pluto/plutolib.a(nwk_pre_input.o)
 .debug_aranges
                0x00001330       0x50 pluto/plutolib.a(nwk_route.o)
 .debug_aranges
                0x00001380       0x48 pluto/plutolib.a(osCore.o)
 .debug_aranges
                0x000013c8      0x160 pluto/plutolib.a(osLibc.o)
 .debug_aranges
                0x00001528       0x90 pluto/plutolib.a(osTimer.o)
 .debug_aranges
                0x000015b8       0x30 pluto/plutolib.a(osTrace.o)
 .debug_aranges
                0x000015e8       0x80 pluto/plutolib.a(printf.o)
 .debug_aranges
                0x00001668      0x128 pluto/plutolib.a(pdo_describe.o)
 .debug_aranges
                0x00001790       0x48 pluto/plutolib.a(pdo_keys.o)
 .debug_aranges
                0x000017d8       0xa8 pluto/plutolib.a(pdo_nib.o)
 .debug_aranges
                0x00001880       0x50 pluto/plutolib.a(pdo_record.o)
 .debug_aranges
                0x000018d0       0x40 pluto/plutolib.a(pdo_scene.o)
 .debug_aranges
                0x00001910       0x58 pluto/plutolib.a(pdo_server.o)
 .debug_aranges
                0x00001968       0x30 pluto/plutolib.a(pdo_update.o)
 .debug_aranges
                0x00001998       0x80 pluto/plutolib.a(scene.o)
 .debug_aranges
                0x00001a18       0x88 pluto/plutolib.a(scene_core.o)
 .debug_aranges
                0x00001aa0       0x40 pluto/plutolib.a(scene_do.o)
 .debug_aranges
                0x00001ae0       0x80 pluto/plutolib.a(scene_lib.o)
 .debug_aranges
                0x00001b60       0x30 pluto/plutolib.a(scene_message.o)
 .debug_aranges
                0x00001b90       0x40 pluto/plutolib.a(scene_reason.o)
 .debug_aranges
                0x00001bd0       0x20 pluto/plutolib.a(aID.o)
 .debug_aranges
                0x00001bf0       0x30 pluto/plutolib.a(aps_input.o)
 .debug_aranges
                0x00001c20       0x38 pluto/plutolib.a(lcl_common.o)
 .debug_aranges
                0x00001c58       0x30 pluto/plutolib.a(lcl_crypto.o)
 .debug_aranges
                0x00001c88       0x50 pluto/plutolib.a(nwk_input.o)
 .debug_aranges
                0x00001cd8       0x50 pluto/plutolib.a(pdo.o)
 .debug_aranges
                0x00001d28       0x68 pluto/plutolib.a(pdo_file_system.o)
 .debug_aranges
                0x00001d90       0x30 pluto/plutolib.a(pdo_utb.o)
 .debug_aranges
                0x00001dc0       0x80 pluto/plutolib.a(lcl_aes.o)
 .debug_aranges
                0x00001e40       0x28 pluto/plutolib.a(lcl_input.o)
 .debug_aranges
                0x00001e68       0x50 libs/gcc/app_start.lib(gpio.o)
 .debug_aranges
                0x00001eb8       0x28 libs/gcc/app_start.lib(memory.o)
 .debug_aranges
                0x00001ee0       0x50 libs/gcc/app_start.lib(ql_func.o)
 .debug_aranges
                0x00001f30       0x28 libs/gcc/app_start.lib(ql_main.o)
 .debug_aranges
                0x00001f58       0x20 libs/gcc/app_start.lib(ril_aux.o)
 .debug_aranges
                0x00001f78       0x58 libs/gcc/app_start.lib(ril_main.o)
 .debug_aranges
                0x00001fd0       0x48 libs/gcc/app_start.lib(spi.o)
 .debug_aranges
                0x00002018       0xc0 libs/gcc/app_start.lib(stdlib_func.o)
 .debug_aranges
                0x000020d8       0x40 libs/gcc/app_start.lib(system.o)
 .debug_aranges
                0x00002118       0xc8 libs/gcc/app_start.lib(taskMngt.o)
 .debug_aranges
                0x000021e0       0x60 libs/gcc/app_start.lib(timer.o)
 .debug_aranges
                0x00002240       0x50 libs/gcc/app_start.lib(uart.o)
 .debug_aranges
                0x00002290       0x20 libs/gcc/app_start.lib(ocpu_init.o)

.debug_line     0x00000000     0xb4b5
 .debug_line    0x00000000       0x81 build\gcc\obj/App/Pluto-Switch3-V1.0/config/custom_sys_cfg.o
 .debug_line    0x00000081       0x8b build\gcc\obj/App/Pluto-Switch3-V1.0/config/sys_config.o
 .debug_line    0x0000010c       0xc2 build\gcc\obj/ril/src/ril_atResponse.o
 .debug_line    0x000001ce       0xca build\gcc\obj/ril/src/ril_dfota.o
 .debug_line    0x00000298       0x69 build\gcc\obj/ril/src/ril_init.o
 .debug_line    0x00000301      0x276 build\gcc\obj/ril/src/ril_lwm2m.o
 .debug_line    0x00000577       0xe7 build\gcc\obj/ril/src/ril_network.o
 .debug_line    0x0000065e      0x28a build\gcc\obj/ril/src/ril_onenet.o
 .debug_line    0x000008e8      0x22d build\gcc\obj/ril/src/ril_socket.o
 .debug_line    0x00000b15      0x410 build\gcc\obj/ril/src/ril_system.o
 .debug_line    0x00000f25      0x3d1 build\gcc\obj/ril/src/ril_urc.o
 .debug_line    0x000012f6      0x187 build\gcc\obj/ril/src/ril_util.o
 .debug_line    0x0000147d      0x1c8 build\gcc\obj/App/Pluto-Switch3-V1.0/app_task.o
 .debug_line    0x00001645      0x1bb build\gcc\obj/App/Pluto-Switch3-V1.0/bc26_init.o
 .debug_line    0x00001800       0xda build\gcc\obj/App/Pluto-Switch3-V1.0/factory_settings.o
 .debug_line    0x000018da       0x92 build\gcc\obj/App/Pluto-Switch3-V1.0/Hal_HTU.o
 .debug_line    0x0000196c      0x143 build\gcc\obj/App/Pluto-Switch3-V1.0/hal_i2c.o
 .debug_line    0x00001aaf       0xc4 build\gcc\obj/App/Pluto-Switch3-V1.0/hal_key.o
 .debug_line    0x00001b73       0xc9 build\gcc\obj/App/Pluto-Switch3-V1.0/hal_lamp.o
 .debug_line    0x00001c3c       0xc3 build\gcc\obj/App/Pluto-Switch3-V1.0/hal_led.o
 .debug_line    0x00001cff      0x1aa build\gcc\obj/App/Pluto-Switch3-V1.0/hal_MT.o
 .debug_line    0x00001ea9       0xca build\gcc\obj/App/Pluto-Switch3-V1.0/hal_uart.o
 .debug_line    0x00001f73       0x6f build\gcc\obj/App/Pluto-Switch3-V1.0/main.o
 .debug_line    0x00001fe2       0xb1 build\gcc\obj/pluto/pluto_entry.o
 .debug_line    0x00002093      0x319 build\gcc\obj/pluto/fs/pluto_file_system.o
 .debug_line    0x000023ac      0x96a build\gcc\obj/pluto/json/cJSON.o
 .debug_line    0x00002d16       0xd5 build\gcc\obj/pluto/socket/tcp_socket.o
 .debug_line    0x00002deb      0x181 build\gcc\obj/pluto/socket/udp_socket.o
 .debug_line    0x00002f6c      0x184 build\gcc\obj/pluto/spiffs/fs_entry.o
 .debug_line    0x000030f0       0x7d build\gcc\obj/pluto/spiffs/hal_spi.o
 .debug_line    0x0000316d      0x267 build\gcc\obj/pluto/spiffs/spiffs_cache.o
 .debug_line    0x000033d4       0xec build\gcc\obj/pluto/spiffs/spiffs_flash_functions.o
 .debug_line    0x000034c0      0x352 build\gcc\obj/pluto/spiffs/spiffs_gc.o
 .debug_line    0x00003812      0x894 build\gcc\obj/pluto/spiffs/spiffs_hydrogen.o
 .debug_line    0x000040a6      0xc6a build\gcc\obj/pluto/spiffs/spiffs_nucleus.o
 .debug_line    0x00004d10      0x5c4 build\gcc\obj/pluto/spiffs/w25qxx.o
 .debug_line    0x000052d4       0xe4 pluto/plutolib.a(pluto.o)
 .debug_line    0x000053b8      0x1f2 pluto/plutolib.a(pluto_common.o)
 .debug_line    0x000055aa       0xf9 pluto/plutolib.a(aps_common.o)
 .debug_line    0x000056a3      0x243 pluto/plutolib.a(aps_output.o)
 .debug_line    0x000058e6      0x11e pluto/plutolib.a(aps_user.o)
 .debug_line    0x00005a04      0x251 pluto/plutolib.a(lcl_output.o)
 .debug_line    0x00005c55      0x289 pluto/plutolib.a(login.o)
 .debug_line    0x00005ede       0xa8 pluto/plutolib.a(nwk_common.o)
 .debug_line    0x00005f86      0x20a pluto/plutolib.a(nwk_nib.o)
 .debug_line    0x00006190      0x2a5 pluto/plutolib.a(nwk_output.o)
 .debug_line    0x00006435       0xf3 pluto/plutolib.a(nwk_pre_input.o)
 .debug_line    0x00006528      0x176 pluto/plutolib.a(nwk_route.o)
 .debug_line    0x0000669e      0x10f pluto/plutolib.a(osCore.o)
 .debug_line    0x000067ad      0x58d pluto/plutolib.a(osLibc.o)
 .debug_line    0x00006d3a      0x281 pluto/plutolib.a(osTimer.o)
 .debug_line    0x00006fbb      0x13f pluto/plutolib.a(osTrace.o)
 .debug_line    0x000070fa      0x55e pluto/plutolib.a(printf.o)
 .debug_line    0x00007658      0x727 pluto/plutolib.a(pdo_describe.o)
 .debug_line    0x00007d7f      0x155 pluto/plutolib.a(pdo_keys.o)
 .debug_line    0x00007ed4      0x18c pluto/plutolib.a(pdo_nib.o)
 .debug_line    0x00008060      0x198 pluto/plutolib.a(pdo_record.o)
 .debug_line    0x000081f8      0x1ec pluto/plutolib.a(pdo_scene.o)
 .debug_line    0x000083e4      0x1fa pluto/plutolib.a(pdo_server.o)
 .debug_line    0x000085de       0xec pluto/plutolib.a(pdo_update.o)
 .debug_line    0x000086ca      0x1fc pluto/plutolib.a(scene.o)
 .debug_line    0x000088c6      0x31d pluto/plutolib.a(scene_core.o)
 .debug_line    0x00008be3      0x221 pluto/plutolib.a(scene_do.o)
 .debug_line    0x00008e04      0x286 pluto/plutolib.a(scene_lib.o)
 .debug_line    0x0000908a      0x134 pluto/plutolib.a(scene_message.o)
 .debug_line    0x000091be      0x26b pluto/plutolib.a(scene_reason.o)
 .debug_line    0x00009429       0x5b pluto/plutolib.a(aID.o)
 .debug_line    0x00009484      0x121 pluto/plutolib.a(aps_input.o)
 .debug_line    0x000095a5       0xa2 pluto/plutolib.a(lcl_common.o)
 .debug_line    0x00009647       0xd7 pluto/plutolib.a(lcl_crypto.o)
 .debug_line    0x0000971e      0x29f pluto/plutolib.a(nwk_input.o)
 .debug_line    0x000099bd      0x1a6 pluto/plutolib.a(pdo.o)
 .debug_line    0x00009b63      0x242 pluto/plutolib.a(pdo_file_system.o)
 .debug_line    0x00009da5      0x14e pluto/plutolib.a(pdo_utb.o)
 .debug_line    0x00009ef3      0x2c5 pluto/plutolib.a(lcl_aes.o)
 .debug_line    0x0000a1b8      0x143 pluto/plutolib.a(lcl_input.o)
 .debug_line    0x0000a2fb      0x13c libs/gcc/app_start.lib(gpio.o)
 .debug_line    0x0000a437       0xb1 libs/gcc/app_start.lib(memory.o)
 .debug_line    0x0000a4e8      0x12a libs/gcc/app_start.lib(ql_func.o)
 .debug_line    0x0000a612       0xf9 libs/gcc/app_start.lib(ql_main.o)
 .debug_line    0x0000a70b       0x75 libs/gcc/app_start.lib(ril_aux.o)
 .debug_line    0x0000a780      0x2a9 libs/gcc/app_start.lib(ril_main.o)
 .debug_line    0x0000aa29      0x128 libs/gcc/app_start.lib(spi.o)
 .debug_line    0x0000ab51      0x2cb libs/gcc/app_start.lib(stdlib_func.o)
 .debug_line    0x0000ae1c       0xf7 libs/gcc/app_start.lib(system.o)
 .debug_line    0x0000af13      0x2af libs/gcc/app_start.lib(taskMngt.o)
 .debug_line    0x0000b1c2      0x16c libs/gcc/app_start.lib(timer.o)
 .debug_line    0x0000b32e      0x136 libs/gcc/app_start.lib(uart.o)
 .debug_line    0x0000b464       0x51 libs/gcc/app_start.lib(ocpu_init.o)

.debug_str      0x00000000     0xad3d
 .debug_str     0x00000000      0x3d5 build\gcc\obj/App/Pluto-Switch3-V1.0/config/custom_sys_cfg.o
                                0x403 (size before relaxing)
 .debug_str     0x000003d5      0x2b1 build\gcc\obj/App/Pluto-Switch3-V1.0/config/sys_config.o
                                0x4b5 (size before relaxing)
 .debug_str     0x00000686       0xcb build\gcc\obj/ril/src/ril_atResponse.o
                                0x2ca (size before relaxing)
 .debug_str     0x00000751      0x1b9 build\gcc\obj/ril/src/ril_dfota.o
                                0x3b0 (size before relaxing)
 .debug_str     0x0000090a       0x53 build\gcc\obj/ril/src/ril_init.o
                                0x237 (size before relaxing)
 .debug_str     0x0000095d      0x360 build\gcc\obj/ril/src/ril_lwm2m.o
                                0x63f (size before relaxing)
 .debug_str     0x00000cbd      0x136 build\gcc\obj/ril/src/ril_network.o
                                0x3e6 (size before relaxing)
 .debug_str     0x00000df3      0x694 build\gcc\obj/ril/src/ril_onenet.o
                                0x9fa (size before relaxing)
 .debug_str     0x00001487      0x319 build\gcc\obj/ril/src/ril_socket.o
                                0x679 (size before relaxing)
 .debug_str     0x000017a0      0x1f5 build\gcc\obj/ril/src/ril_system.o
                                0x56d (size before relaxing)
 .debug_str     0x00001995      0x623 build\gcc\obj/ril/src/ril_urc.o
                                0xb91 (size before relaxing)
 .debug_str     0x00001fb8       0xae build\gcc\obj/ril/src/ril_util.o
                                0x2b1 (size before relaxing)
 .debug_str     0x00002066      0x5ba build\gcc\obj/App/Pluto-Switch3-V1.0/app_task.o
                                0x84d (size before relaxing)
 .debug_str     0x00002620      0x1ca build\gcc\obj/App/Pluto-Switch3-V1.0/bc26_init.o
                                0x492 (size before relaxing)
 .debug_str     0x000027ea      0x255 build\gcc\obj/App/Pluto-Switch3-V1.0/factory_settings.o
                                0x48c (size before relaxing)
 .debug_str     0x00002a3f       0x49 build\gcc\obj/App/Pluto-Switch3-V1.0/Hal_HTU.o
                                0x250 (size before relaxing)
 .debug_str     0x00002a88       0xc7 build\gcc\obj/App/Pluto-Switch3-V1.0/hal_i2c.o
                                0x43c (size before relaxing)
 .debug_str     0x00002b4f       0x84 build\gcc\obj/App/Pluto-Switch3-V1.0/hal_key.o
                                0x3fe (size before relaxing)
 .debug_str     0x00002bd3       0x60 build\gcc\obj/App/Pluto-Switch3-V1.0/hal_lamp.o
                                0x3db (size before relaxing)
 .debug_str     0x00002c33       0x87 build\gcc\obj/App/Pluto-Switch3-V1.0/hal_led.o
                                0x411 (size before relaxing)
 .debug_str     0x00002cba      0x143 build\gcc\obj/App/Pluto-Switch3-V1.0/hal_MT.o
                                0x3f0 (size before relaxing)
 .debug_str     0x00002dfd      0xf63 build\gcc\obj/App/Pluto-Switch3-V1.0/hal_uart.o
                               0x1161 (size before relaxing)
 .debug_str     0x00003d60       0x34 build\gcc\obj/App/Pluto-Switch3-V1.0/main.o
                                0x225 (size before relaxing)
 .debug_str     0x00003d94      0x15e build\gcc\obj/pluto/pluto_entry.o
                                0x39c (size before relaxing)
 .debug_str     0x00003ef2      0x4f4 build\gcc\obj/pluto/fs/pluto_file_system.o
                                0x811 (size before relaxing)
 .debug_str     0x000043e6      0x4d3 build\gcc\obj/pluto/json/cJSON.o
                                0x755 (size before relaxing)
 .debug_str     0x000048b9       0x90 build\gcc\obj/pluto/socket/tcp_socket.o
                                0x468 (size before relaxing)
 .debug_str     0x00004949      0x117 build\gcc\obj/pluto/socket/udp_socket.o
                                0x601 (size before relaxing)
 .debug_str     0x00004a60      0x13a build\gcc\obj/pluto/spiffs/fs_entry.o
                                0x741 (size before relaxing)
 .debug_str     0x00004b9a       0x2f build\gcc\obj/pluto/spiffs/hal_spi.o
                                0x3b1 (size before relaxing)
 .debug_str     0x00004bc9      0x24d build\gcc\obj/pluto/spiffs/spiffs_cache.o
                                0x83a (size before relaxing)
 .debug_str     0x00004e16       0x87 build\gcc\obj/pluto/spiffs/spiffs_flash_functions.o
                                0x2ae (size before relaxing)
 .debug_str     0x00004e9d      0x315 build\gcc\obj/pluto/spiffs/spiffs_gc.o
                                0x93b (size before relaxing)
 .debug_str     0x000051b2      0x3d1 build\gcc\obj/pluto/spiffs/spiffs_hydrogen.o
                                0xc04 (size before relaxing)
 .debug_str     0x00005583      0x6f4 build\gcc\obj/pluto/spiffs/spiffs_nucleus.o
                                0xf88 (size before relaxing)
 .debug_str     0x00005c77      0x585 build\gcc\obj/pluto/spiffs/w25qxx.o
                                0x82f (size before relaxing)
 .debug_str     0x000061fc       0x97 pluto/plutolib.a(pluto.o)
                                0x355 (size before relaxing)
 .debug_str     0x00006293      0x21a pluto/plutolib.a(pluto_common.o)
                                0x4b0 (size before relaxing)
 .debug_str     0x000064ad       0xb7 pluto/plutolib.a(aps_common.o)
                                0x350 (size before relaxing)
 .debug_str     0x00006564      0x18f pluto/plutolib.a(aps_output.o)
                                0x666 (size before relaxing)
 .debug_str     0x000066f3       0x98 pluto/plutolib.a(aps_user.o)
                                0x34e (size before relaxing)
 .debug_str     0x0000678b      0x1e8 pluto/plutolib.a(lcl_output.o)
                                0x5b7 (size before relaxing)
 .debug_str     0x00006973      0x333 pluto/plutolib.a(login.o)
                                0x7c4 (size before relaxing)
 .debug_str     0x00006ca6       0x56 pluto/plutolib.a(nwk_common.o)
                                0x338 (size before relaxing)
 .debug_str     0x00006cfc      0x24b pluto/plutolib.a(nwk_nib.o)
                                0x5a7 (size before relaxing)
 .debug_str     0x00006f47      0x200 pluto/plutolib.a(nwk_output.o)
                                0x683 (size before relaxing)
 .debug_str     0x00007147       0x7f pluto/plutolib.a(nwk_pre_input.o)
                                0x373 (size before relaxing)
 .debug_str     0x000071c6       0xee pluto/plutolib.a(nwk_route.o)
                                0x370 (size before relaxing)
 .debug_str     0x000072b4       0x76 pluto/plutolib.a(osCore.o)
                                0x345 (size before relaxing)
 .debug_str     0x0000732a      0x21e pluto/plutolib.a(osLibc.o)
                                0x455 (size before relaxing)
 .debug_str     0x00007548      0x199 pluto/plutolib.a(osTimer.o)
                                0x44e (size before relaxing)
 .debug_str     0x000076e1       0x7d pluto/plutolib.a(osTrace.o)
                                0x2e1 (size before relaxing)
 .debug_str     0x0000775e      0x153 pluto/plutolib.a(printf.o)
                                0x3d6 (size before relaxing)
 .debug_str     0x000078b1      0x4b5 pluto/plutolib.a(pdo_describe.o)
                                0xb72 (size before relaxing)
 .debug_str     0x00007d66       0xb8 pluto/plutolib.a(pdo_keys.o)
                                0x37a (size before relaxing)
 .debug_str     0x00007e1e      0x213 pluto/plutolib.a(pdo_nib.o)
                                0x4c4 (size before relaxing)
 .debug_str     0x00008031       0xe3 pluto/plutolib.a(pdo_record.o)
                                0x6a9 (size before relaxing)
 .debug_str     0x00008114      0x160 pluto/plutolib.a(pdo_scene.o)
                                0x745 (size before relaxing)
 .debug_str     0x00008274       0xd0 pluto/plutolib.a(pdo_server.o)
                                0x74f (size before relaxing)
 .debug_str     0x00008344       0x60 pluto/plutolib.a(pdo_update.o)
                                0x623 (size before relaxing)
 .debug_str     0x000083a4      0x1b5 pluto/plutolib.a(scene.o)
                                0x552 (size before relaxing)
 .debug_str     0x00008559      0x197 pluto/plutolib.a(scene_core.o)
                                0x7a6 (size before relaxing)
 .debug_str     0x000086f0       0xbc pluto/plutolib.a(scene_do.o)
                                0x50c (size before relaxing)
 .debug_str     0x000087ac      0x127 pluto/plutolib.a(scene_lib.o)
                                0x4ec (size before relaxing)
 .debug_str     0x000088d3       0x92 pluto/plutolib.a(scene_message.o)
                                0x4c9 (size before relaxing)
 .debug_str     0x00008965       0xc0 pluto/plutolib.a(scene_reason.o)
                                0x580 (size before relaxing)
 .debug_str     0x00008a25       0x23 pluto/plutolib.a(aID.o)
                                0x243 (size before relaxing)
 .debug_str     0x00008a48       0x76 pluto/plutolib.a(aps_input.o)
                                0x4a3 (size before relaxing)
 .debug_str     0x00008abe       0x73 pluto/plutolib.a(lcl_common.o)
                                0x29f (size before relaxing)
 .debug_str     0x00008b31       0x76 pluto/plutolib.a(lcl_crypto.o)
                                0x2fb (size before relaxing)
 .debug_str     0x00008ba7      0x174 pluto/plutolib.a(nwk_input.o)
                                0x584 (size before relaxing)
 .debug_str     0x00008d1b      0x1bb pluto/plutolib.a(pdo.o)
                                0x75f (size before relaxing)
 .debug_str     0x00008ed6      0x208 pluto/plutolib.a(pdo_file_system.o)
                                0x800 (size before relaxing)
 .debug_str     0x000090de       0x91 pluto/plutolib.a(pdo_utb.o)
                                0x678 (size before relaxing)
 .debug_str     0x0000916f      0x12c pluto/plutolib.a(lcl_aes.o)
                                0x37d (size before relaxing)
 .debug_str     0x0000929b       0x61 pluto/plutolib.a(lcl_input.o)
                                0x68c (size before relaxing)
 .debug_str     0x000092fc      0x25c libs/gcc/app_start.lib(gpio.o)
                               0x13d6 (size before relaxing)
 .debug_str     0x00009558       0x71 libs/gcc/app_start.lib(memory.o)
                                0x293 (size before relaxing)
 .debug_str     0x000095c9      0x2b0 libs/gcc/app_start.lib(ql_func.o)
                               0x12e9 (size before relaxing)
 .debug_str     0x00009879      0x1e6 libs/gcc/app_start.lib(ql_main.o)
                                0x7c0 (size before relaxing)
 .debug_str     0x00009a5f       0x67 libs/gcc/app_start.lib(ril_aux.o)
                                0x297 (size before relaxing)
 .debug_str     0x00009ac6      0x308 libs/gcc/app_start.lib(ril_main.o)
                               0x14c4 (size before relaxing)
 .debug_str     0x00009dce      0x18c libs/gcc/app_start.lib(spi.o)
                               0x1301 (size before relaxing)
 .debug_str     0x00009f5a      0x27f libs/gcc/app_start.lib(stdlib_func.o)
                               0x12d9 (size before relaxing)
 .debug_str     0x0000a1d9      0x10b libs/gcc/app_start.lib(system.o)
                               0x1101 (size before relaxing)
 .debug_str     0x0000a2e4      0x5b4 libs/gcc/app_start.lib(taskMngt.o)
                               0x1678 (size before relaxing)
 .debug_str     0x0000a898      0x23f libs/gcc/app_start.lib(timer.o)
                               0x1254 (size before relaxing)
 .debug_str     0x0000aad7      0x266 libs/gcc/app_start.lib(uart.o)
                               0x13dc (size before relaxing)

.comment        0x00000000       0x70
 .comment       0x00000000       0x70 build\gcc\obj/App/Pluto-Switch3-V1.0/config/custom_sys_cfg.o
                                 0x71 (size before relaxing)
 .comment       0x00000000       0x71 build\gcc\obj/App/Pluto-Switch3-V1.0/config/sys_config.o
 .comment       0x00000000       0x71 build\gcc\obj/ril/src/ril_atResponse.o
 .comment       0x00000000       0x71 build\gcc\obj/ril/src/ril_dfota.o
 .comment       0x00000000       0x71 build\gcc\obj/ril/src/ril_init.o
 .comment       0x00000000       0x71 build\gcc\obj/ril/src/ril_lwm2m.o
 .comment       0x00000000       0x71 build\gcc\obj/ril/src/ril_network.o
 .comment       0x00000000       0x71 build\gcc\obj/ril/src/ril_onenet.o
 .comment       0x00000000       0x71 build\gcc\obj/ril/src/ril_socket.o
 .comment       0x00000000       0x71 build\gcc\obj/ril/src/ril_system.o
 .comment       0x00000000       0x71 build\gcc\obj/ril/src/ril_urc.o
 .comment       0x00000000       0x71 build\gcc\obj/ril/src/ril_util.o
 .comment       0x00000000       0x71 build\gcc\obj/App/Pluto-Switch3-V1.0/app_task.o
 .comment       0x00000000       0x71 build\gcc\obj/App/Pluto-Switch3-V1.0/bc26_init.o
 .comment       0x00000000       0x71 build\gcc\obj/App/Pluto-Switch3-V1.0/factory_settings.o
 .comment       0x00000000       0x71 build\gcc\obj/App/Pluto-Switch3-V1.0/Hal_HTU.o
 .comment       0x00000000       0x71 build\gcc\obj/App/Pluto-Switch3-V1.0/hal_i2c.o
 .comment       0x00000000       0x71 build\gcc\obj/App/Pluto-Switch3-V1.0/hal_key.o
 .comment       0x00000000       0x71 build\gcc\obj/App/Pluto-Switch3-V1.0/hal_lamp.o
 .comment       0x00000000       0x71 build\gcc\obj/App/Pluto-Switch3-V1.0/hal_led.o
 .comment       0x00000000       0x71 build\gcc\obj/App/Pluto-Switch3-V1.0/hal_MT.o
 .comment       0x00000000       0x71 build\gcc\obj/App/Pluto-Switch3-V1.0/hal_uart.o
 .comment       0x00000000       0x71 build\gcc\obj/App/Pluto-Switch3-V1.0/main.o
 .comment       0x00000000       0x71 build\gcc\obj/pluto/pluto_entry.o
 .comment       0x00000000       0x71 build\gcc\obj/pluto/fs/pluto_file_system.o
 .comment       0x00000000       0x71 build\gcc\obj/pluto/json/cJSON.o
 .comment       0x00000000       0x71 build\gcc\obj/pluto/socket/tcp_socket.o
 .comment       0x00000000       0x71 build\gcc\obj/pluto/socket/udp_socket.o
 .comment       0x00000000       0x71 build\gcc\obj/pluto/spiffs/fs_entry.o
 .comment       0x00000000       0x71 build\gcc\obj/pluto/spiffs/hal_spi.o
 .comment       0x00000000       0x71 build\gcc\obj/pluto/spiffs/spiffs_cache.o
 .comment       0x00000000       0x71 build\gcc\obj/pluto/spiffs/spiffs_flash_functions.o
 .comment       0x00000000       0x71 build\gcc\obj/pluto/spiffs/spiffs_gc.o
 .comment       0x00000000       0x71 build\gcc\obj/pluto/spiffs/spiffs_hydrogen.o
 .comment       0x00000000       0x71 build\gcc\obj/pluto/spiffs/spiffs_nucleus.o
 .comment       0x00000000       0x71 build\gcc\obj/pluto/spiffs/w25qxx.o
 .comment       0x00000000       0x71 pluto/plutolib.a(pluto.o)
 .comment       0x00000000       0x71 pluto/plutolib.a(pluto_common.o)
 .comment       0x00000000       0x71 pluto/plutolib.a(aps_common.o)
 .comment       0x00000000       0x71 pluto/plutolib.a(aps_output.o)
 .comment       0x00000000       0x71 pluto/plutolib.a(aps_user.o)
 .comment       0x00000000       0x71 pluto/plutolib.a(lcl_output.o)
 .comment       0x00000000       0x71 pluto/plutolib.a(login.o)
 .comment       0x00000000       0x71 pluto/plutolib.a(nwk_common.o)
 .comment       0x00000000       0x71 pluto/plutolib.a(nwk_nib.o)
 .comment       0x00000000       0x71 pluto/plutolib.a(nwk_output.o)
 .comment       0x00000000       0x71 pluto/plutolib.a(nwk_pre_input.o)
 .comment       0x00000000       0x71 pluto/plutolib.a(nwk_route.o)
 .comment       0x00000000       0x71 pluto/plutolib.a(osCore.o)
 .comment       0x00000000       0x71 pluto/plutolib.a(osLibc.o)
 .comment       0x00000000       0x71 pluto/plutolib.a(osTimer.o)
 .comment       0x00000000       0x71 pluto/plutolib.a(osTrace.o)
 .comment       0x00000000       0x71 pluto/plutolib.a(printf.o)
 .comment       0x00000000       0x71 pluto/plutolib.a(pdo_describe.o)
 .comment       0x00000000       0x71 pluto/plutolib.a(pdo_keys.o)
 .comment       0x00000000       0x71 pluto/plutolib.a(pdo_nib.o)
 .comment       0x00000000       0x71 pluto/plutolib.a(pdo_record.o)
 .comment       0x00000000       0x71 pluto/plutolib.a(pdo_scene.o)
 .comment       0x00000000       0x71 pluto/plutolib.a(pdo_server.o)
 .comment       0x00000000       0x71 pluto/plutolib.a(pdo_update.o)
 .comment       0x00000000       0x71 pluto/plutolib.a(scene.o)
 .comment       0x00000000       0x71 pluto/plutolib.a(scene_core.o)
 .comment       0x00000000       0x71 pluto/plutolib.a(scene_do.o)
 .comment       0x00000000       0x71 pluto/plutolib.a(scene_lib.o)
 .comment       0x00000000       0x71 pluto/plutolib.a(scene_message.o)
 .comment       0x00000000       0x71 pluto/plutolib.a(scene_reason.o)
 .comment       0x00000000       0x71 pluto/plutolib.a(aID.o)
 .comment       0x00000000       0x71 pluto/plutolib.a(aps_input.o)
 .comment       0x00000000       0x71 pluto/plutolib.a(lcl_common.o)
 .comment       0x00000000       0x71 pluto/plutolib.a(lcl_crypto.o)
 .comment       0x00000000       0x71 pluto/plutolib.a(nwk_input.o)
 .comment       0x00000000       0x71 pluto/plutolib.a(pdo.o)
 .comment       0x00000000       0x71 pluto/plutolib.a(pdo_file_system.o)
 .comment       0x00000000       0x71 pluto/plutolib.a(pdo_utb.o)
 .comment       0x00000000       0x71 pluto/plutolib.a(lcl_aes.o)
 .comment       0x00000000       0x71 pluto/plutolib.a(lcl_input.o)
 .comment       0x00000000       0x71 libs/gcc/app_start.lib(gpio.o)
 .comment       0x00000000       0x71 libs/gcc/app_start.lib(memory.o)
 .comment       0x00000000       0x71 libs/gcc/app_start.lib(ql_func.o)
 .comment       0x00000000       0x71 libs/gcc/app_start.lib(ql_main.o)
 .comment       0x00000000       0x71 libs/gcc/app_start.lib(ril_aux.o)
 .comment       0x00000000       0x71 libs/gcc/app_start.lib(ril_main.o)
 .comment       0x00000000       0x71 libs/gcc/app_start.lib(spi.o)
 .comment       0x00000000       0x71 libs/gcc/app_start.lib(stdlib_func.o)
 .comment       0x00000000       0x71 libs/gcc/app_start.lib(system.o)
 .comment       0x00000000       0x71 libs/gcc/app_start.lib(taskMngt.o)
 .comment       0x00000000       0x71 libs/gcc/app_start.lib(timer.o)
 .comment       0x00000000       0x71 libs/gcc/app_start.lib(uart.o)

.ARM.attributes
                0x00000000       0x37
 .ARM.attributes
                0x00000000       0x39 build\gcc\obj/App/Pluto-Switch3-V1.0/config/custom_sys_cfg.o
 .ARM.attributes
                0x00000039       0x39 build\gcc\obj/App/Pluto-Switch3-V1.0/config/sys_config.o
 .ARM.attributes
                0x00000072       0x39 build\gcc\obj/ril/src/ril_atResponse.o
 .ARM.attributes
                0x000000ab       0x39 build\gcc\obj/ril/src/ril_dfota.o
 .ARM.attributes
                0x000000e4       0x39 build\gcc\obj/ril/src/ril_init.o
 .ARM.attributes
                0x0000011d       0x39 build\gcc\obj/ril/src/ril_lwm2m.o
 .ARM.attributes
                0x00000156       0x39 build\gcc\obj/ril/src/ril_network.o
 .ARM.attributes
                0x0000018f       0x39 build\gcc\obj/ril/src/ril_onenet.o
 .ARM.attributes
                0x000001c8       0x39 build\gcc\obj/ril/src/ril_socket.o
 .ARM.attributes
                0x00000201       0x39 build\gcc\obj/ril/src/ril_system.o
 .ARM.attributes
                0x0000023a       0x39 build\gcc\obj/ril/src/ril_urc.o
 .ARM.attributes
                0x00000273       0x39 build\gcc\obj/ril/src/ril_util.o
 .ARM.attributes
                0x000002ac       0x39 build\gcc\obj/App/Pluto-Switch3-V1.0/app_task.o
 .ARM.attributes
                0x000002e5       0x39 build\gcc\obj/App/Pluto-Switch3-V1.0/bc26_init.o
 .ARM.attributes
                0x0000031e       0x39 build\gcc\obj/App/Pluto-Switch3-V1.0/factory_settings.o
 .ARM.attributes
                0x00000357       0x39 build\gcc\obj/App/Pluto-Switch3-V1.0/Hal_HTU.o
 .ARM.attributes
                0x00000390       0x39 build\gcc\obj/App/Pluto-Switch3-V1.0/hal_i2c.o
 .ARM.attributes
                0x000003c9       0x39 build\gcc\obj/App/Pluto-Switch3-V1.0/hal_key.o
 .ARM.attributes
                0x00000402       0x39 build\gcc\obj/App/Pluto-Switch3-V1.0/hal_lamp.o
 .ARM.attributes
                0x0000043b       0x39 build\gcc\obj/App/Pluto-Switch3-V1.0/hal_led.o
 .ARM.attributes
                0x00000474       0x39 build\gcc\obj/App/Pluto-Switch3-V1.0/hal_MT.o
 .ARM.attributes
                0x000004ad       0x39 build\gcc\obj/App/Pluto-Switch3-V1.0/hal_uart.o
 .ARM.attributes
                0x000004e6       0x39 build\gcc\obj/App/Pluto-Switch3-V1.0/main.o
 .ARM.attributes
                0x0000051f       0x39 build\gcc\obj/pluto/pluto_entry.o
 .ARM.attributes
                0x00000558       0x39 build\gcc\obj/pluto/fs/pluto_file_system.o
 .ARM.attributes
                0x00000591       0x39 build\gcc\obj/pluto/json/cJSON.o
 .ARM.attributes
                0x000005ca       0x39 build\gcc\obj/pluto/socket/tcp_socket.o
 .ARM.attributes
                0x00000603       0x39 build\gcc\obj/pluto/socket/udp_socket.o
 .ARM.attributes
                0x0000063c       0x39 build\gcc\obj/pluto/spiffs/fs_entry.o
 .ARM.attributes
                0x00000675       0x39 build\gcc\obj/pluto/spiffs/hal_spi.o
 .ARM.attributes
                0x000006ae       0x39 build\gcc\obj/pluto/spiffs/spiffs_cache.o
 .ARM.attributes
                0x000006e7       0x39 build\gcc\obj/pluto/spiffs/spiffs_flash_functions.o
 .ARM.attributes
                0x00000720       0x39 build\gcc\obj/pluto/spiffs/spiffs_gc.o
 .ARM.attributes
                0x00000759       0x39 build\gcc\obj/pluto/spiffs/spiffs_hydrogen.o
 .ARM.attributes
                0x00000792       0x39 build\gcc\obj/pluto/spiffs/spiffs_nucleus.o
 .ARM.attributes
                0x000007cb       0x39 build\gcc\obj/pluto/spiffs/w25qxx.o
 .ARM.attributes
                0x00000804       0x39 pluto/plutolib.a(pluto.o)
 .ARM.attributes
                0x0000083d       0x39 pluto/plutolib.a(pluto_common.o)
 .ARM.attributes
                0x00000876       0x39 pluto/plutolib.a(aps_common.o)
 .ARM.attributes
                0x000008af       0x39 pluto/plutolib.a(aps_output.o)
 .ARM.attributes
                0x000008e8       0x39 pluto/plutolib.a(aps_user.o)
 .ARM.attributes
                0x00000921       0x39 pluto/plutolib.a(lcl_output.o)
 .ARM.attributes
                0x0000095a       0x39 pluto/plutolib.a(login.o)
 .ARM.attributes
                0x00000993       0x39 pluto/plutolib.a(nwk_common.o)
 .ARM.attributes
                0x000009cc       0x39 pluto/plutolib.a(nwk_nib.o)
 .ARM.attributes
                0x00000a05       0x39 pluto/plutolib.a(nwk_output.o)
 .ARM.attributes
                0x00000a3e       0x39 pluto/plutolib.a(nwk_pre_input.o)
 .ARM.attributes
                0x00000a77       0x39 pluto/plutolib.a(nwk_route.o)
 .ARM.attributes
                0x00000ab0       0x39 pluto/plutolib.a(osCore.o)
 .ARM.attributes
                0x00000ae9       0x39 pluto/plutolib.a(osLibc.o)
 .ARM.attributes
                0x00000b22       0x39 pluto/plutolib.a(osTimer.o)
 .ARM.attributes
                0x00000b5b       0x39 pluto/plutolib.a(osTrace.o)
 .ARM.attributes
                0x00000b94       0x39 pluto/plutolib.a(printf.o)
 .ARM.attributes
                0x00000bcd       0x39 pluto/plutolib.a(pdo_describe.o)
 .ARM.attributes
                0x00000c06       0x39 pluto/plutolib.a(pdo_keys.o)
 .ARM.attributes
                0x00000c3f       0x39 pluto/plutolib.a(pdo_nib.o)
 .ARM.attributes
                0x00000c78       0x39 pluto/plutolib.a(pdo_record.o)
 .ARM.attributes
                0x00000cb1       0x39 pluto/plutolib.a(pdo_scene.o)
 .ARM.attributes
                0x00000cea       0x39 pluto/plutolib.a(pdo_server.o)
 .ARM.attributes
                0x00000d23       0x39 pluto/plutolib.a(pdo_update.o)
 .ARM.attributes
                0x00000d5c       0x39 pluto/plutolib.a(scene.o)
 .ARM.attributes
                0x00000d95       0x39 pluto/plutolib.a(scene_core.o)
 .ARM.attributes
                0x00000dce       0x39 pluto/plutolib.a(scene_do.o)
 .ARM.attributes
                0x00000e07       0x39 pluto/plutolib.a(scene_lib.o)
 .ARM.attributes
                0x00000e40       0x39 pluto/plutolib.a(scene_message.o)
 .ARM.attributes
                0x00000e79       0x39 pluto/plutolib.a(scene_reason.o)
 .ARM.attributes
                0x00000eb2       0x39 pluto/plutolib.a(aID.o)
 .ARM.attributes
                0x00000eeb       0x39 pluto/plutolib.a(aps_input.o)
 .ARM.attributes
                0x00000f24       0x39 pluto/plutolib.a(lcl_common.o)
 .ARM.attributes
                0x00000f5d       0x39 pluto/plutolib.a(lcl_crypto.o)
 .ARM.attributes
                0x00000f96       0x39 pluto/plutolib.a(nwk_input.o)
 .ARM.attributes
                0x00000fcf       0x39 pluto/plutolib.a(pdo.o)
 .ARM.attributes
                0x00001008       0x39 pluto/plutolib.a(pdo_file_system.o)
 .ARM.attributes
                0x00001041       0x39 pluto/plutolib.a(pdo_utb.o)
 .ARM.attributes
                0x0000107a       0x39 pluto/plutolib.a(lcl_aes.o)
 .ARM.attributes
                0x000010b3       0x39 pluto/plutolib.a(lcl_input.o)
 .ARM.attributes
                0x000010ec       0x39 libs/gcc/app_start.lib(gpio.o)
 .ARM.attributes
                0x00001125       0x39 libs/gcc/app_start.lib(memory.o)
 .ARM.attributes
                0x0000115e       0x39 libs/gcc/app_start.lib(ql_func.o)
 .ARM.attributes
                0x00001197       0x39 libs/gcc/app_start.lib(ql_main.o)
 .ARM.attributes
                0x000011d0       0x39 libs/gcc/app_start.lib(ril_aux.o)
 .ARM.attributes
                0x00001209       0x39 libs/gcc/app_start.lib(ril_main.o)
 .ARM.attributes
                0x00001242       0x39 libs/gcc/app_start.lib(spi.o)
 .ARM.attributes
                0x0000127b       0x39 libs/gcc/app_start.lib(stdlib_func.o)
 .ARM.attributes
                0x000012b4       0x39 libs/gcc/app_start.lib(system.o)
 .ARM.attributes
                0x000012ed       0x39 libs/gcc/app_start.lib(taskMngt.o)
 .ARM.attributes
                0x00001326       0x39 libs/gcc/app_start.lib(timer.o)
 .ARM.attributes
                0x0000135f       0x39 libs/gcc/app_start.lib(uart.o)
 .ARM.attributes
                0x00001398       0x21 libs/gcc/app_start.lib(ocpu_init.o)
 .ARM.attributes
                0x000013b9       0x34 tools\gcc\win\gcc-arm-none-eabi/arm-none-eabi/lib/armv7e-m/fpu/libc.a(lib_a-atoi.o)
 .ARM.attributes
                0x000013ed       0x20 tools\gcc\win\gcc-arm-none-eabi/arm-none-eabi/lib/armv7e-m/fpu/libc.a(lib_a-memcpy.o)
 .ARM.attributes
                0x0000140d       0x34 tools\gcc\win\gcc-arm-none-eabi/arm-none-eabi/lib/armv7e-m/fpu/libc.a(lib_a-memset.o)
 .ARM.attributes
                0x00001441       0x34 tools\gcc\win\gcc-arm-none-eabi/arm-none-eabi/lib/armv7e-m/fpu/libc.a(lib_a-strchr.o)
 .ARM.attributes
                0x00001475       0x34 tools\gcc\win\gcc-arm-none-eabi/arm-none-eabi/lib/armv7e-m/fpu/libc.a(lib_a-strcpy.o)
 .ARM.attributes
                0x000014a9       0x34 tools\gcc\win\gcc-arm-none-eabi/arm-none-eabi/lib/armv7e-m/fpu/libc.a(lib_a-strlen.o)
 .ARM.attributes
                0x000014dd       0x34 tools\gcc\win\gcc-arm-none-eabi/arm-none-eabi/lib/armv7e-m/fpu/libc.a(lib_a-strncpy.o)
 .ARM.attributes
                0x00001511       0x34 tools\gcc\win\gcc-arm-none-eabi/arm-none-eabi/lib/armv7e-m/fpu/libc.a(lib_a-strsep.o)
 .ARM.attributes
                0x00001545       0x34 tools\gcc\win\gcc-arm-none-eabi/arm-none-eabi/lib/armv7e-m/fpu/libc.a(lib_a-strtok.o)
 .ARM.attributes
                0x00001579       0x34 tools\gcc\win\gcc-arm-none-eabi/arm-none-eabi/lib/armv7e-m/fpu/libc.a(lib_a-strtok_r.o)
 .ARM.attributes
                0x000015ad       0x34 tools\gcc\win\gcc-arm-none-eabi/arm-none-eabi/lib/armv7e-m/fpu/libc.a(lib_a-strtol.o)
 .ARM.attributes
                0x000015e1       0x34 tools\gcc\win\gcc-arm-none-eabi/arm-none-eabi/lib/armv7e-m/fpu/libc.a(lib_a-ctype_.o)
 .ARM.attributes
                0x00001615       0x34 tools\gcc\win\gcc-arm-none-eabi/arm-none-eabi/lib/armv7e-m/fpu/libc.a(lib_a-impure.o)
 .ARM.attributes
                0x00001649       0x22 tools\gcc\win\gcc-arm-none-eabi/lib/gcc/arm-none-eabi/4.8.3/armv7e-m/fpu/libgcc.a(_arm_addsubdf3.o)
 .ARM.attributes
                0x0000166b       0x22 tools\gcc\win\gcc-arm-none-eabi/lib/gcc/arm-none-eabi/4.8.3/armv7e-m/fpu/libgcc.a(_arm_muldivdf3.o)
 .ARM.attributes
                0x0000168d       0x22 tools\gcc\win\gcc-arm-none-eabi/lib/gcc/arm-none-eabi/4.8.3/armv7e-m/fpu/libgcc.a(_arm_cmpdf2.o)
 .ARM.attributes
                0x000016af       0x22 tools\gcc\win\gcc-arm-none-eabi/lib/gcc/arm-none-eabi/4.8.3/armv7e-m/fpu/libgcc.a(_arm_fixdfsi.o)
 .ARM.attributes
                0x000016d1       0x22 tools\gcc\win\gcc-arm-none-eabi/lib/gcc/arm-none-eabi/4.8.3/armv7e-m/fpu/libgcc.a(_arm_fixunsdfsi.o)
 .ARM.attributes
                0x000016f3       0x22 tools\gcc\win\gcc-arm-none-eabi/lib/gcc/arm-none-eabi/4.8.3/armv7e-m/fpu/libgcc.a(_aeabi_uldivmod.o)
 .ARM.attributes
                0x00001715       0x34 tools\gcc\win\gcc-arm-none-eabi/lib/gcc/arm-none-eabi/4.8.3/armv7e-m/fpu/libgcc.a(bpabi.o)
 .ARM.attributes
                0x00001749       0x22 tools\gcc\win\gcc-arm-none-eabi/lib/gcc/arm-none-eabi/4.8.3/armv7e-m/fpu/libgcc.a(_dvmd_tls.o)
 .ARM.attributes
                0x0000176b       0x34 tools\gcc\win\gcc-arm-none-eabi/lib/gcc/arm-none-eabi/4.8.3/armv7e-m/fpu/libgcc.a(_divdi3.o)
 .ARM.attributes
                0x0000179f       0x34 tools\gcc\win\gcc-arm-none-eabi/lib/gcc/arm-none-eabi/4.8.3/armv7e-m/fpu/libgcc.a(_udivdi3.o)

.debug_loc      0x00000000    0x2ff8d
 .debug_loc     0x00000000      0x134 build\gcc\obj/ril/src/ril_atResponse.o
 .debug_loc     0x00000134      0x129 build\gcc\obj/ril/src/ril_dfota.o
 .debug_loc     0x0000025d      0xcfe build\gcc\obj/ril/src/ril_lwm2m.o
 .debug_loc     0x00000f5b      0x270 build\gcc\obj/ril/src/ril_network.o
 .debug_loc     0x000011cb      0xe8b build\gcc\obj/ril/src/ril_onenet.o
 .debug_loc     0x00002056      0xc59 build\gcc\obj/ril/src/ril_socket.o
 .debug_loc     0x00002caf     0x13ec build\gcc\obj/ril/src/ril_system.o
 .debug_loc     0x0000409b      0xe55 build\gcc\obj/ril/src/ril_urc.o
 .debug_loc     0x00004ef0      0x6fc build\gcc\obj/ril/src/ril_util.o
 .debug_loc     0x000055ec      0x677 build\gcc\obj/App/Pluto-Switch3-V1.0/app_task.o
 .debug_loc     0x00005c63      0x58b build\gcc\obj/App/Pluto-Switch3-V1.0/bc26_init.o
 .debug_loc     0x000061ee      0x410 build\gcc\obj/App/Pluto-Switch3-V1.0/factory_settings.o
 .debug_loc     0x000065fe      0x213 build\gcc\obj/App/Pluto-Switch3-V1.0/Hal_HTU.o
 .debug_loc     0x00006811      0x254 build\gcc\obj/App/Pluto-Switch3-V1.0/hal_i2c.o
 .debug_loc     0x00006a65       0x7e build\gcc\obj/App/Pluto-Switch3-V1.0/hal_key.o
 .debug_loc     0x00006ae3      0x104 build\gcc\obj/App/Pluto-Switch3-V1.0/hal_lamp.o
 .debug_loc     0x00006be7      0x28a build\gcc\obj/App/Pluto-Switch3-V1.0/hal_led.o
 .debug_loc     0x00006e71      0x97e build\gcc\obj/App/Pluto-Switch3-V1.0/hal_MT.o
 .debug_loc     0x000077ef      0x15a build\gcc\obj/App/Pluto-Switch3-V1.0/hal_uart.o
 .debug_loc     0x00007949       0x41 build\gcc\obj/App/Pluto-Switch3-V1.0/main.o
 .debug_loc     0x0000798a      0x13c build\gcc\obj/pluto/pluto_entry.o
 .debug_loc     0x00007ac6      0xccf build\gcc\obj/pluto/fs/pluto_file_system.o
 .debug_loc     0x00008795     0x332e build\gcc\obj/pluto/json/cJSON.o
 .debug_loc     0x0000bac3       0x83 build\gcc\obj/pluto/socket/tcp_socket.o
 .debug_loc     0x0000bb46      0x497 build\gcc\obj/pluto/socket/udp_socket.o
 .debug_loc     0x0000bfdd      0x590 build\gcc\obj/pluto/spiffs/fs_entry.o
 .debug_loc     0x0000c56d       0xac build\gcc\obj/pluto/spiffs/hal_spi.o
 .debug_loc     0x0000c619      0xc5f build\gcc\obj/pluto/spiffs/spiffs_cache.o
 .debug_loc     0x0000d278      0x409 build\gcc\obj/pluto/spiffs/spiffs_flash_functions.o
 .debug_loc     0x0000d681     0x1004 build\gcc\obj/pluto/spiffs/spiffs_gc.o
 .debug_loc     0x0000e685     0x287c build\gcc\obj/pluto/spiffs/spiffs_hydrogen.o
 .debug_loc     0x00010f01     0x3fe6 build\gcc\obj/pluto/spiffs/spiffs_nucleus.o
 .debug_loc     0x00014ee7     0x143b build\gcc\obj/pluto/spiffs/w25qxx.o
 .debug_loc     0x00016322       0xab pluto/plutolib.a(pluto.o)
 .debug_loc     0x000163cd      0x418 pluto/plutolib.a(pluto_common.o)
 .debug_loc     0x000167e5      0x515 pluto/plutolib.a(aps_common.o)
 .debug_loc     0x00016cfa      0xd87 pluto/plutolib.a(aps_output.o)
 .debug_loc     0x00017a81      0x2ef pluto/plutolib.a(aps_user.o)
 .debug_loc     0x00017d70      0xd8b pluto/plutolib.a(lcl_output.o)
 .debug_loc     0x00018afb      0x6f0 pluto/plutolib.a(login.o)
 .debug_loc     0x000191eb      0x18a pluto/plutolib.a(nwk_common.o)
 .debug_loc     0x00019375       0xc7 pluto/plutolib.a(nwk_nib.o)
 .debug_loc     0x0001943c     0x102a pluto/plutolib.a(nwk_output.o)
 .debug_loc     0x0001a466      0x2fa pluto/plutolib.a(nwk_pre_input.o)
 .debug_loc     0x0001a760      0x5fc pluto/plutolib.a(nwk_route.o)
 .debug_loc     0x0001ad5c      0x25e pluto/plutolib.a(osCore.o)
 .debug_loc     0x0001afba     0x178f pluto/plutolib.a(osLibc.o)
 .debug_loc     0x0001c749      0xbc4 pluto/plutolib.a(osTimer.o)
 .debug_loc     0x0001d30d       0xfd pluto/plutolib.a(osTrace.o)
 .debug_loc     0x0001d40a     0x1b58 pluto/plutolib.a(printf.o)
 .debug_loc     0x0001ef62     0x27d5 pluto/plutolib.a(pdo_describe.o)
 .debug_loc     0x00021737      0x488 pluto/plutolib.a(pdo_keys.o)
 .debug_loc     0x00021bbf       0x57 pluto/plutolib.a(pdo_nib.o)
 .debug_loc     0x00021c16      0xa7e pluto/plutolib.a(pdo_record.o)
 .debug_loc     0x00022694      0xc58 pluto/plutolib.a(pdo_scene.o)
 .debug_loc     0x000232ec      0x9dd pluto/plutolib.a(pdo_server.o)
 .debug_loc     0x00023cc9      0x267 pluto/plutolib.a(pdo_update.o)
 .debug_loc     0x00023f30      0x699 pluto/plutolib.a(scene.o)
 .debug_loc     0x000245c9      0xb9b pluto/plutolib.a(scene_core.o)
 .debug_loc     0x00025164      0x9a6 pluto/plutolib.a(scene_do.o)
 .debug_loc     0x00025b0a      0x730 pluto/plutolib.a(scene_lib.o)
 .debug_loc     0x0002623a      0x2ef pluto/plutolib.a(scene_message.o)
 .debug_loc     0x00026529      0xadc pluto/plutolib.a(scene_reason.o)
 .debug_loc     0x00027005       0x9a pluto/plutolib.a(aID.o)
 .debug_loc     0x0002709f      0x6b2 pluto/plutolib.a(aps_input.o)
 .debug_loc     0x00027751      0x258 pluto/plutolib.a(lcl_common.o)
 .debug_loc     0x000279a9      0x363 pluto/plutolib.a(lcl_crypto.o)
 .debug_loc     0x00027d0c      0xe91 pluto/plutolib.a(nwk_input.o)
 .debug_loc     0x00028b9d      0xab5 pluto/plutolib.a(pdo.o)
 .debug_loc     0x00029652     0x11ac pluto/plutolib.a(pdo_file_system.o)
 .debug_loc     0x0002a7fe      0x7ac pluto/plutolib.a(pdo_utb.o)
 .debug_loc     0x0002afaa     0x10a2 pluto/plutolib.a(lcl_aes.o)
 .debug_loc     0x0002c04c      0x5df pluto/plutolib.a(lcl_input.o)
 .debug_loc     0x0002c62b      0x35f libs/gcc/app_start.lib(gpio.o)
 .debug_loc     0x0002c98a       0xdf libs/gcc/app_start.lib(memory.o)
 .debug_loc     0x0002ca69      0x394 libs/gcc/app_start.lib(ql_func.o)
 .debug_loc     0x0002cdfd      0x104 libs/gcc/app_start.lib(ql_main.o)
 .debug_loc     0x0002cf01       0x60 libs/gcc/app_start.lib(ril_aux.o)
 .debug_loc     0x0002cf61      0x838 libs/gcc/app_start.lib(ril_main.o)
 .debug_loc     0x0002d799      0x542 libs/gcc/app_start.lib(spi.o)
 .debug_loc     0x0002dcdb      0xd09 libs/gcc/app_start.lib(stdlib_func.o)
 .debug_loc     0x0002e9e4      0x1e3 libs/gcc/app_start.lib(system.o)
 .debug_loc     0x0002ebc7      0xa3a libs/gcc/app_start.lib(taskMngt.o)
 .debug_loc     0x0002f601      0x55c libs/gcc/app_start.lib(timer.o)
 .debug_loc     0x0002fb5d      0x430 libs/gcc/app_start.lib(uart.o)

.debug_ranges   0x00000000     0x2928
 .debug_ranges  0x00000000       0x20 build\gcc\obj/ril/src/ril_atResponse.o
 .debug_ranges  0x00000020       0x20 build\gcc\obj/ril/src/ril_dfota.o
 .debug_ranges  0x00000040       0x18 build\gcc\obj/ril/src/ril_init.o
 .debug_ranges  0x00000058       0x90 build\gcc\obj/ril/src/ril_lwm2m.o
 .debug_ranges  0x000000e8       0x20 build\gcc\obj/ril/src/ril_network.o
 .debug_ranges  0x00000108       0xb0 build\gcc\obj/ril/src/ril_onenet.o
 .debug_ranges  0x000001b8       0x80 build\gcc\obj/ril/src/ril_socket.o
 .debug_ranges  0x00000238      0x180 build\gcc\obj/ril/src/ril_system.o
 .debug_ranges  0x000003b8       0x88 build\gcc\obj/ril/src/ril_urc.o
 .debug_ranges  0x00000440       0x38 build\gcc\obj/ril/src/ril_util.o
 .debug_ranges  0x00000478       0x70 build\gcc\obj/App/Pluto-Switch3-V1.0/app_task.o
 .debug_ranges  0x000004e8       0x40 build\gcc\obj/App/Pluto-Switch3-V1.0/bc26_init.o
 .debug_ranges  0x00000528       0x28 build\gcc\obj/App/Pluto-Switch3-V1.0/factory_settings.o
 .debug_ranges  0x00000550       0x18 build\gcc\obj/App/Pluto-Switch3-V1.0/Hal_HTU.o
 .debug_ranges  0x00000568       0x58 build\gcc\obj/App/Pluto-Switch3-V1.0/hal_i2c.o
 .debug_ranges  0x000005c0       0x40 build\gcc\obj/App/Pluto-Switch3-V1.0/hal_key.o
 .debug_ranges  0x00000600       0x28 build\gcc\obj/App/Pluto-Switch3-V1.0/hal_lamp.o
 .debug_ranges  0x00000628       0x28 build\gcc\obj/App/Pluto-Switch3-V1.0/hal_led.o
 .debug_ranges  0x00000650       0xc0 build\gcc\obj/App/Pluto-Switch3-V1.0/hal_MT.o
 .debug_ranges  0x00000710       0x28 build\gcc\obj/App/Pluto-Switch3-V1.0/hal_uart.o
 .debug_ranges  0x00000738       0x10 build\gcc\obj/App/Pluto-Switch3-V1.0/main.o
 .debug_ranges  0x00000748       0x28 build\gcc\obj/pluto/pluto_entry.o
 .debug_ranges  0x00000770       0x78 build\gcc\obj/pluto/fs/pluto_file_system.o
 .debug_ranges  0x000007e8      0x1c8 build\gcc\obj/pluto/json/cJSON.o
 .debug_ranges  0x000009b0       0x30 build\gcc\obj/pluto/socket/tcp_socket.o
 .debug_ranges  0x000009e0       0x50 build\gcc\obj/pluto/socket/udp_socket.o
 .debug_ranges  0x00000a30       0x78 build\gcc\obj/pluto/spiffs/fs_entry.o
 .debug_ranges  0x00000aa8       0x18 build\gcc\obj/pluto/spiffs/hal_spi.o
 .debug_ranges  0x00000ac0       0x78 build\gcc\obj/pluto/spiffs/spiffs_cache.o
 .debug_ranges  0x00000b38       0x20 build\gcc\obj/pluto/spiffs/spiffs_flash_functions.o
 .debug_ranges  0x00000b58       0x88 build\gcc\obj/pluto/spiffs/spiffs_gc.o
 .debug_ranges  0x00000be0      0x190 build\gcc\obj/pluto/spiffs/spiffs_hydrogen.o
 .debug_ranges  0x00000d70      0x240 build\gcc\obj/pluto/spiffs/spiffs_nucleus.o
 .debug_ranges  0x00000fb0      0x110 build\gcc\obj/pluto/spiffs/w25qxx.o
 .debug_ranges  0x000010c0       0x18 pluto/plutolib.a(pluto.o)
 .debug_ranges  0x000010d8       0xb8 pluto/plutolib.a(pluto_common.o)
 .debug_ranges  0x00001190       0x38 pluto/plutolib.a(aps_common.o)
 .debug_ranges  0x000011c8       0xb8 pluto/plutolib.a(aps_output.o)
 .debug_ranges  0x00001280       0x30 pluto/plutolib.a(aps_user.o)
 .debug_ranges  0x000012b0       0x58 pluto/plutolib.a(lcl_output.o)
 .debug_ranges  0x00001308       0x70 pluto/plutolib.a(login.o)
 .debug_ranges  0x00001378       0x20 pluto/plutolib.a(nwk_common.o)
 .debug_ranges  0x00001398       0xc0 pluto/plutolib.a(nwk_nib.o)
 .debug_ranges  0x00001458       0xb0 pluto/plutolib.a(nwk_output.o)
 .debug_ranges  0x00001508       0x18 pluto/plutolib.a(nwk_pre_input.o)
 .debug_ranges  0x00001520       0x40 pluto/plutolib.a(nwk_route.o)
 .debug_ranges  0x00001560       0x38 pluto/plutolib.a(osCore.o)
 .debug_ranges  0x00001598      0x150 pluto/plutolib.a(osLibc.o)
 .debug_ranges  0x000016e8       0x80 pluto/plutolib.a(osTimer.o)
 .debug_ranges  0x00001768       0x20 pluto/plutolib.a(osTrace.o)
 .debug_ranges  0x00001788      0x100 pluto/plutolib.a(printf.o)
 .debug_ranges  0x00001888      0x1e8 pluto/plutolib.a(pdo_describe.o)
 .debug_ranges  0x00001a70       0x50 pluto/plutolib.a(pdo_keys.o)
 .debug_ranges  0x00001ac0       0x98 pluto/plutolib.a(pdo_nib.o)
 .debug_ranges  0x00001b58       0x40 pluto/plutolib.a(pdo_record.o)
 .debug_ranges  0x00001b98       0x78 pluto/plutolib.a(pdo_scene.o)
 .debug_ranges  0x00001c10       0x60 pluto/plutolib.a(pdo_server.o)
 .debug_ranges  0x00001c70       0x20 pluto/plutolib.a(pdo_update.o)
 .debug_ranges  0x00001c90       0x70 pluto/plutolib.a(scene.o)
 .debug_ranges  0x00001d00       0x78 pluto/plutolib.a(scene_core.o)
 .debug_ranges  0x00001d78       0x30 pluto/plutolib.a(scene_do.o)
 .debug_ranges  0x00001da8       0x70 pluto/plutolib.a(scene_lib.o)
 .debug_ranges  0x00001e18       0x38 pluto/plutolib.a(scene_message.o)
 .debug_ranges  0x00001e50       0x30 pluto/plutolib.a(scene_reason.o)
 .debug_ranges  0x00001e80       0x10 pluto/plutolib.a(aID.o)
 .debug_ranges  0x00001e90       0x20 pluto/plutolib.a(aps_input.o)
 .debug_ranges  0x00001eb0       0x28 pluto/plutolib.a(lcl_common.o)
 .debug_ranges  0x00001ed8       0x20 pluto/plutolib.a(lcl_crypto.o)
 .debug_ranges  0x00001ef8       0xa0 pluto/plutolib.a(nwk_input.o)
 .debug_ranges  0x00001f98       0x40 pluto/plutolib.a(pdo.o)
 .debug_ranges  0x00001fd8       0xb8 pluto/plutolib.a(pdo_file_system.o)
 .debug_ranges  0x00002090       0x20 pluto/plutolib.a(pdo_utb.o)
 .debug_ranges  0x000020b0       0x70 pluto/plutolib.a(lcl_aes.o)
 .debug_ranges  0x00002120       0x18 pluto/plutolib.a(lcl_input.o)
 .debug_ranges  0x00002138       0xe8 libs/gcc/app_start.lib(gpio.o)
 .debug_ranges  0x00002220       0x18 libs/gcc/app_start.lib(memory.o)
 .debug_ranges  0x00002238       0x70 libs/gcc/app_start.lib(ql_func.o)
 .debug_ranges  0x000022a8       0x18 libs/gcc/app_start.lib(ql_main.o)
 .debug_ranges  0x000022c0       0x10 libs/gcc/app_start.lib(ril_aux.o)
 .debug_ranges  0x000022d0       0xb0 libs/gcc/app_start.lib(ril_main.o)
 .debug_ranges  0x00002380       0xc8 libs/gcc/app_start.lib(spi.o)
 .debug_ranges  0x00002448      0x110 libs/gcc/app_start.lib(stdlib_func.o)
 .debug_ranges  0x00002558       0x30 libs/gcc/app_start.lib(system.o)
 .debug_ranges  0x00002588      0x1a8 libs/gcc/app_start.lib(taskMngt.o)
 .debug_ranges  0x00002730      0x128 libs/gcc/app_start.lib(timer.o)
 .debug_ranges  0x00002858       0xd0 libs/gcc/app_start.lib(uart.o)

.debug_frame    0x00000000     0x65c0
 .debug_frame   0x00000000       0x50 build\gcc\obj/ril/src/ril_atResponse.o
 .debug_frame   0x00000050       0x64 build\gcc\obj/ril/src/ril_dfota.o
 .debug_frame   0x000000b4       0x30 build\gcc\obj/ril/src/ril_init.o
 .debug_frame   0x000000e4      0x21c build\gcc\obj/ril/src/ril_lwm2m.o
 .debug_frame   0x00000300       0x6c build\gcc\obj/ril/src/ril_network.o
 .debug_frame   0x0000036c      0x248 build\gcc\obj/ril/src/ril_onenet.o
 .debug_frame   0x000005b4      0x1a0 build\gcc\obj/ril/src/ril_socket.o
 .debug_frame   0x00000754      0x1d0 build\gcc\obj/ril/src/ril_system.o
 .debug_frame   0x00000924      0x234 build\gcc\obj/ril/src/ril_urc.o
 .debug_frame   0x00000b58       0xcc build\gcc\obj/ril/src/ril_util.o
 .debug_frame   0x00000c24       0xe4 build\gcc\obj/App/Pluto-Switch3-V1.0/app_task.o
 .debug_frame   0x00000d08       0xd4 build\gcc\obj/App/Pluto-Switch3-V1.0/bc26_init.o
 .debug_frame   0x00000ddc       0x7c build\gcc\obj/App/Pluto-Switch3-V1.0/factory_settings.o
 .debug_frame   0x00000e58       0x48 build\gcc\obj/App/Pluto-Switch3-V1.0/Hal_HTU.o
 .debug_frame   0x00000ea0      0x110 build\gcc\obj/App/Pluto-Switch3-V1.0/hal_i2c.o
 .debug_frame   0x00000fb0       0x50 build\gcc\obj/App/Pluto-Switch3-V1.0/hal_key.o
 .debug_frame   0x00001000       0x74 build\gcc\obj/App/Pluto-Switch3-V1.0/hal_lamp.o
 .debug_frame   0x00001074       0x7c build\gcc\obj/App/Pluto-Switch3-V1.0/hal_led.o
 .debug_frame   0x000010f0       0xd4 build\gcc\obj/App/Pluto-Switch3-V1.0/hal_MT.o
 .debug_frame   0x000011c4       0x6c build\gcc\obj/App/Pluto-Switch3-V1.0/hal_uart.o
 .debug_frame   0x00001230       0x28 build\gcc\obj/App/Pluto-Switch3-V1.0/main.o
 .debug_frame   0x00001258       0x6c build\gcc\obj/pluto/pluto_entry.o
 .debug_frame   0x000012c4      0x1a8 build\gcc\obj/pluto/fs/pluto_file_system.o
 .debug_frame   0x0000146c      0x544 build\gcc\obj/pluto/json/cJSON.o
 .debug_frame   0x000019b0       0x68 build\gcc\obj/pluto/socket/tcp_socket.o
 .debug_frame   0x00001a18       0xb8 build\gcc\obj/pluto/socket/udp_socket.o
 .debug_frame   0x00001ad0      0x16c build\gcc\obj/pluto/spiffs/fs_entry.o
 .debug_frame   0x00001c3c       0x54 build\gcc\obj/pluto/spiffs/hal_spi.o
 .debug_frame   0x00001c90      0x160 build\gcc\obj/pluto/spiffs/spiffs_cache.o
 .debug_frame   0x00001df0       0x74 build\gcc\obj/pluto/spiffs/spiffs_flash_functions.o
 .debug_frame   0x00001e64       0xf8 build\gcc\obj/pluto/spiffs/spiffs_gc.o
 .debug_frame   0x00001f5c      0x4a0 build\gcc\obj/pluto/spiffs/spiffs_hydrogen.o
 .debug_frame   0x000023fc      0x518 build\gcc\obj/pluto/spiffs/spiffs_nucleus.o
 .debug_frame   0x00002914      0x3f4 build\gcc\obj/pluto/spiffs/w25qxx.o
 .debug_frame   0x00002d08       0x58 pluto/plutolib.a(pluto.o)
 .debug_frame   0x00002d60      0x1c4 pluto/plutolib.a(pluto_common.o)
 .debug_frame   0x00002f24       0xb4 pluto/plutolib.a(aps_common.o)
 .debug_frame   0x00002fd8      0x11c pluto/plutolib.a(aps_output.o)
 .debug_frame   0x000030f4       0x94 pluto/plutolib.a(aps_user.o)
 .debug_frame   0x00003188      0x168 pluto/plutolib.a(lcl_output.o)
 .debug_frame   0x000032f0      0x14c pluto/plutolib.a(login.o)
 .debug_frame   0x0000343c       0x70 pluto/plutolib.a(nwk_common.o)
 .debug_frame   0x000034ac      0x194 pluto/plutolib.a(nwk_nib.o)
 .debug_frame   0x00003640      0x160 pluto/plutolib.a(nwk_output.o)
 .debug_frame   0x000037a0       0x48 pluto/plutolib.a(nwk_pre_input.o)
 .debug_frame   0x000037e8       0xf8 pluto/plutolib.a(nwk_route.o)
 .debug_frame   0x000038e0       0xb4 pluto/plutolib.a(osCore.o)
 .debug_frame   0x00003994      0x3b4 pluto/plutolib.a(osLibc.o)
 .debug_frame   0x00003d48      0x1a4 pluto/plutolib.a(osTimer.o)
 .debug_frame   0x00003eec       0x6c pluto/plutolib.a(osTrace.o)
 .debug_frame   0x00003f58      0x1bc pluto/plutolib.a(printf.o)
 .debug_frame   0x00004114      0x454 pluto/plutolib.a(pdo_describe.o)
 .debug_frame   0x00004568       0xc0 pluto/plutolib.a(pdo_keys.o)
 .debug_frame   0x00004628      0x138 pluto/plutolib.a(pdo_nib.o)
 .debug_frame   0x00004760      0x100 pluto/plutolib.a(pdo_record.o)
 .debug_frame   0x00004860       0xb4 pluto/plutolib.a(pdo_scene.o)
 .debug_frame   0x00004914      0x108 pluto/plutolib.a(pdo_server.o)
 .debug_frame   0x00004a1c       0x54 pluto/plutolib.a(pdo_update.o)
 .debug_frame   0x00004a70      0x168 pluto/plutolib.a(scene.o)
 .debug_frame   0x00004bd8      0x190 pluto/plutolib.a(scene_core.o)
 .debug_frame   0x00004d68       0xb4 pluto/plutolib.a(scene_do.o)
 .debug_frame   0x00004e1c      0x140 pluto/plutolib.a(scene_lib.o)
 .debug_frame   0x00004f5c       0x6c pluto/plutolib.a(scene_message.o)
 .debug_frame   0x00004fc8       0xb0 pluto/plutolib.a(scene_reason.o)
 .debug_frame   0x00005078       0x20 pluto/plutolib.a(aID.o)
 .debug_frame   0x00005098       0x7c pluto/plutolib.a(aps_input.o)
 .debug_frame   0x00005114       0x68 pluto/plutolib.a(lcl_common.o)
 .debug_frame   0x0000517c       0x74 pluto/plutolib.a(lcl_crypto.o)
 .debug_frame   0x000051f0       0xfc pluto/plutolib.a(nwk_input.o)
 .debug_frame   0x000052ec       0xcc pluto/plutolib.a(pdo.o)
 .debug_frame   0x000053b8      0x150 pluto/plutolib.a(pdo_file_system.o)
 .debug_frame   0x00005508       0x80 pluto/plutolib.a(pdo_utb.o)
 .debug_frame   0x00005588      0x19c pluto/plutolib.a(lcl_aes.o)
 .debug_frame   0x00005724       0x5c pluto/plutolib.a(lcl_input.o)
 .debug_frame   0x00005780       0xd8 libs/gcc/app_start.lib(gpio.o)
 .debug_frame   0x00005858       0x48 libs/gcc/app_start.lib(memory.o)
 .debug_frame   0x000058a0       0xd8 libs/gcc/app_start.lib(ql_func.o)
 .debug_frame   0x00005978       0x48 libs/gcc/app_start.lib(ql_main.o)
 .debug_frame   0x000059c0       0x30 libs/gcc/app_start.lib(ril_aux.o)
 .debug_frame   0x000059f0       0xf8 libs/gcc/app_start.lib(ril_main.o)
 .debug_frame   0x00005ae8       0xe8 libs/gcc/app_start.lib(spi.o)
 .debug_frame   0x00005bd0      0x26c libs/gcc/app_start.lib(stdlib_func.o)
 .debug_frame   0x00005e3c       0x98 libs/gcc/app_start.lib(system.o)
 .debug_frame   0x00005ed4      0x270 libs/gcc/app_start.lib(taskMngt.o)
 .debug_frame   0x00006144      0x120 libs/gcc/app_start.lib(timer.o)
 .debug_frame   0x00006264       0xe4 libs/gcc/app_start.lib(uart.o)
 .debug_frame   0x00006348       0x30 tools\gcc\win\gcc-arm-none-eabi/arm-none-eabi/lib/armv7e-m/fpu/libc.a(lib_a-atoi.o)
 .debug_frame   0x00006378       0x2c tools\gcc\win\gcc-arm-none-eabi/arm-none-eabi/lib/armv7e-m/fpu/libc.a(lib_a-memset.o)
 .debug_frame   0x000063a4       0x2c tools\gcc\win\gcc-arm-none-eabi/arm-none-eabi/lib/armv7e-m/fpu/libc.a(lib_a-strchr.o)
 .debug_frame   0x000063d0       0x20 tools\gcc\win\gcc-arm-none-eabi/arm-none-eabi/lib/armv7e-m/fpu/libc.a(lib_a-strcpy.o)
 .debug_frame   0x000063f0       0x20 tools\gcc\win\gcc-arm-none-eabi/arm-none-eabi/lib/armv7e-m/fpu/libc.a(lib_a-strlen.o)
 .debug_frame   0x00006410       0x2c tools\gcc\win\gcc-arm-none-eabi/arm-none-eabi/lib/armv7e-m/fpu/libc.a(lib_a-strncpy.o)
 .debug_frame   0x0000643c       0x20 tools\gcc\win\gcc-arm-none-eabi/arm-none-eabi/lib/armv7e-m/fpu/libc.a(lib_a-strsep.o)
 .debug_frame   0x0000645c       0x20 tools\gcc\win\gcc-arm-none-eabi/arm-none-eabi/lib/armv7e-m/fpu/libc.a(lib_a-strtok.o)
 .debug_frame   0x0000647c       0x3c tools\gcc\win\gcc-arm-none-eabi/arm-none-eabi/lib/armv7e-m/fpu/libc.a(lib_a-strtok_r.o)
 .debug_frame   0x000064b8       0x50 tools\gcc\win\gcc-arm-none-eabi/arm-none-eabi/lib/armv7e-m/fpu/libc.a(lib_a-strtol.o)
 .debug_frame   0x00006508       0x50 tools\gcc\win\gcc-arm-none-eabi/lib/gcc/arm-none-eabi/4.8.3/armv7e-m/fpu/libgcc.a(bpabi.o)
 .debug_frame   0x00006558       0x34 tools\gcc\win\gcc-arm-none-eabi/lib/gcc/arm-none-eabi/4.8.3/armv7e-m/fpu/libgcc.a(_divdi3.o)
 .debug_frame   0x0000658c       0x34 tools\gcc\win\gcc-arm-none-eabi/lib/gcc/arm-none-eabi/4.8.3/armv7e-m/fpu/libgcc.a(_udivdi3.o)
